
ctarget:     file format elf64-x86-64


Disassembly of section .init:

0000000000400c48 <_init>:
  400c48:	48 83 ec 08          	sub    $0x8,%rsp
  400c4c:	48 8b 05 a5 33 20 00 	mov    0x2033a5(%rip),%rax        # 603ff8 <__gmon_start__>
  400c53:	48 85 c0             	test   %rax,%rax
  400c56:	74 02                	je     400c5a <_init+0x12>
  400c58:	ff d0                	callq  *%rax
  400c5a:	48 83 c4 08          	add    $0x8,%rsp
  400c5e:	c3                   	retq   

Disassembly of section .plt:

0000000000400c60 <.plt>:
  400c60:	ff 35 a2 33 20 00    	pushq  0x2033a2(%rip)        # 604008 <_GLOBAL_OFFSET_TABLE_+0x8>
  400c66:	ff 25 a4 33 20 00    	jmpq   *0x2033a4(%rip)        # 604010 <_GLOBAL_OFFSET_TABLE_+0x10>
  400c6c:	0f 1f 40 00          	nopl   0x0(%rax)

0000000000400c70 <strcasecmp@plt>:
  400c70:	ff 25 a2 33 20 00    	jmpq   *0x2033a2(%rip)        # 604018 <strcasecmp@GLIBC_2.2.5>
  400c76:	68 00 00 00 00       	pushq  $0x0
  400c7b:	e9 e0 ff ff ff       	jmpq   400c60 <.plt>

0000000000400c80 <__errno_location@plt>:
  400c80:	ff 25 9a 33 20 00    	jmpq   *0x20339a(%rip)        # 604020 <__errno_location@GLIBC_2.2.5>
  400c86:	68 01 00 00 00       	pushq  $0x1
  400c8b:	e9 d0 ff ff ff       	jmpq   400c60 <.plt>

0000000000400c90 <srandom@plt>:
  400c90:	ff 25 92 33 20 00    	jmpq   *0x203392(%rip)        # 604028 <srandom@GLIBC_2.2.5>
  400c96:	68 02 00 00 00       	pushq  $0x2
  400c9b:	e9 c0 ff ff ff       	jmpq   400c60 <.plt>

0000000000400ca0 <strncmp@plt>:
  400ca0:	ff 25 8a 33 20 00    	jmpq   *0x20338a(%rip)        # 604030 <strncmp@GLIBC_2.2.5>
  400ca6:	68 03 00 00 00       	pushq  $0x3
  400cab:	e9 b0 ff ff ff       	jmpq   400c60 <.plt>

0000000000400cb0 <strcpy@plt>:
  400cb0:	ff 25 82 33 20 00    	jmpq   *0x203382(%rip)        # 604038 <strcpy@GLIBC_2.2.5>
  400cb6:	68 04 00 00 00       	pushq  $0x4
  400cbb:	e9 a0 ff ff ff       	jmpq   400c60 <.plt>

0000000000400cc0 <puts@plt>:
  400cc0:	ff 25 7a 33 20 00    	jmpq   *0x20337a(%rip)        # 604040 <puts@GLIBC_2.2.5>
  400cc6:	68 05 00 00 00       	pushq  $0x5
  400ccb:	e9 90 ff ff ff       	jmpq   400c60 <.plt>

0000000000400cd0 <write@plt>:
  400cd0:	ff 25 72 33 20 00    	jmpq   *0x203372(%rip)        # 604048 <write@GLIBC_2.2.5>
  400cd6:	68 06 00 00 00       	pushq  $0x6
  400cdb:	e9 80 ff ff ff       	jmpq   400c60 <.plt>

0000000000400ce0 <__stack_chk_fail@plt>:
  400ce0:	ff 25 6a 33 20 00    	jmpq   *0x20336a(%rip)        # 604050 <__stack_chk_fail@GLIBC_2.4>
  400ce6:	68 07 00 00 00       	pushq  $0x7
  400ceb:	e9 70 ff ff ff       	jmpq   400c60 <.plt>

0000000000400cf0 <mmap@plt>:
  400cf0:	ff 25 62 33 20 00    	jmpq   *0x203362(%rip)        # 604058 <mmap@GLIBC_2.2.5>
  400cf6:	68 08 00 00 00       	pushq  $0x8
  400cfb:	e9 60 ff ff ff       	jmpq   400c60 <.plt>

0000000000400d00 <memset@plt>:
  400d00:	ff 25 5a 33 20 00    	jmpq   *0x20335a(%rip)        # 604060 <memset@GLIBC_2.2.5>
  400d06:	68 09 00 00 00       	pushq  $0x9
  400d0b:	e9 50 ff ff ff       	jmpq   400c60 <.plt>

0000000000400d10 <alarm@plt>:
  400d10:	ff 25 52 33 20 00    	jmpq   *0x203352(%rip)        # 604068 <alarm@GLIBC_2.2.5>
  400d16:	68 0a 00 00 00       	pushq  $0xa
  400d1b:	e9 40 ff ff ff       	jmpq   400c60 <.plt>

0000000000400d20 <close@plt>:
  400d20:	ff 25 4a 33 20 00    	jmpq   *0x20334a(%rip)        # 604070 <close@GLIBC_2.2.5>
  400d26:	68 0b 00 00 00       	pushq  $0xb
  400d2b:	e9 30 ff ff ff       	jmpq   400c60 <.plt>

0000000000400d30 <read@plt>:
  400d30:	ff 25 42 33 20 00    	jmpq   *0x203342(%rip)        # 604078 <read@GLIBC_2.2.5>
  400d36:	68 0c 00 00 00       	pushq  $0xc
  400d3b:	e9 20 ff ff ff       	jmpq   400c60 <.plt>

0000000000400d40 <signal@plt>:
  400d40:	ff 25 3a 33 20 00    	jmpq   *0x20333a(%rip)        # 604080 <signal@GLIBC_2.2.5>
  400d46:	68 0d 00 00 00       	pushq  $0xd
  400d4b:	e9 10 ff ff ff       	jmpq   400c60 <.plt>

0000000000400d50 <gethostbyname@plt>:
  400d50:	ff 25 32 33 20 00    	jmpq   *0x203332(%rip)        # 604088 <gethostbyname@GLIBC_2.2.5>
  400d56:	68 0e 00 00 00       	pushq  $0xe
  400d5b:	e9 00 ff ff ff       	jmpq   400c60 <.plt>

0000000000400d60 <__memmove_chk@plt>:
  400d60:	ff 25 2a 33 20 00    	jmpq   *0x20332a(%rip)        # 604090 <__memmove_chk@GLIBC_2.3.4>
  400d66:	68 0f 00 00 00       	pushq  $0xf
  400d6b:	e9 f0 fe ff ff       	jmpq   400c60 <.plt>

0000000000400d70 <strtol@plt>:
  400d70:	ff 25 22 33 20 00    	jmpq   *0x203322(%rip)        # 604098 <strtol@GLIBC_2.2.5>
  400d76:	68 10 00 00 00       	pushq  $0x10
  400d7b:	e9 e0 fe ff ff       	jmpq   400c60 <.plt>

0000000000400d80 <memcpy@plt>:
  400d80:	ff 25 1a 33 20 00    	jmpq   *0x20331a(%rip)        # 6040a0 <memcpy@GLIBC_2.14>
  400d86:	68 11 00 00 00       	pushq  $0x11
  400d8b:	e9 d0 fe ff ff       	jmpq   400c60 <.plt>

0000000000400d90 <time@plt>:
  400d90:	ff 25 12 33 20 00    	jmpq   *0x203312(%rip)        # 6040a8 <time@GLIBC_2.2.5>
  400d96:	68 12 00 00 00       	pushq  $0x12
  400d9b:	e9 c0 fe ff ff       	jmpq   400c60 <.plt>

0000000000400da0 <random@plt>:
  400da0:	ff 25 0a 33 20 00    	jmpq   *0x20330a(%rip)        # 6040b0 <random@GLIBC_2.2.5>
  400da6:	68 13 00 00 00       	pushq  $0x13
  400dab:	e9 b0 fe ff ff       	jmpq   400c60 <.plt>

0000000000400db0 <_IO_getc@plt>:
  400db0:	ff 25 02 33 20 00    	jmpq   *0x203302(%rip)        # 6040b8 <_IO_getc@GLIBC_2.2.5>
  400db6:	68 14 00 00 00       	pushq  $0x14
  400dbb:	e9 a0 fe ff ff       	jmpq   400c60 <.plt>

0000000000400dc0 <__isoc99_sscanf@plt>:
  400dc0:	ff 25 fa 32 20 00    	jmpq   *0x2032fa(%rip)        # 6040c0 <__isoc99_sscanf@GLIBC_2.7>
  400dc6:	68 15 00 00 00       	pushq  $0x15
  400dcb:	e9 90 fe ff ff       	jmpq   400c60 <.plt>

0000000000400dd0 <munmap@plt>:
  400dd0:	ff 25 f2 32 20 00    	jmpq   *0x2032f2(%rip)        # 6040c8 <munmap@GLIBC_2.2.5>
  400dd6:	68 16 00 00 00       	pushq  $0x16
  400ddb:	e9 80 fe ff ff       	jmpq   400c60 <.plt>

0000000000400de0 <__printf_chk@plt>:
  400de0:	ff 25 ea 32 20 00    	jmpq   *0x2032ea(%rip)        # 6040d0 <__printf_chk@GLIBC_2.3.4>
  400de6:	68 17 00 00 00       	pushq  $0x17
  400deb:	e9 70 fe ff ff       	jmpq   400c60 <.plt>

0000000000400df0 <fopen@plt>:
  400df0:	ff 25 e2 32 20 00    	jmpq   *0x2032e2(%rip)        # 6040d8 <fopen@GLIBC_2.2.5>
  400df6:	68 18 00 00 00       	pushq  $0x18
  400dfb:	e9 60 fe ff ff       	jmpq   400c60 <.plt>

0000000000400e00 <getopt@plt>:
  400e00:	ff 25 da 32 20 00    	jmpq   *0x2032da(%rip)        # 6040e0 <getopt@GLIBC_2.2.5>
  400e06:	68 19 00 00 00       	pushq  $0x19
  400e0b:	e9 50 fe ff ff       	jmpq   400c60 <.plt>

0000000000400e10 <strtoul@plt>:
  400e10:	ff 25 d2 32 20 00    	jmpq   *0x2032d2(%rip)        # 6040e8 <strtoul@GLIBC_2.2.5>
  400e16:	68 1a 00 00 00       	pushq  $0x1a
  400e1b:	e9 40 fe ff ff       	jmpq   400c60 <.plt>

0000000000400e20 <gethostname@plt>:
  400e20:	ff 25 ca 32 20 00    	jmpq   *0x2032ca(%rip)        # 6040f0 <gethostname@GLIBC_2.2.5>
  400e26:	68 1b 00 00 00       	pushq  $0x1b
  400e2b:	e9 30 fe ff ff       	jmpq   400c60 <.plt>

0000000000400e30 <exit@plt>:
  400e30:	ff 25 c2 32 20 00    	jmpq   *0x2032c2(%rip)        # 6040f8 <exit@GLIBC_2.2.5>
  400e36:	68 1c 00 00 00       	pushq  $0x1c
  400e3b:	e9 20 fe ff ff       	jmpq   400c60 <.plt>

0000000000400e40 <connect@plt>:
  400e40:	ff 25 ba 32 20 00    	jmpq   *0x2032ba(%rip)        # 604100 <connect@GLIBC_2.2.5>
  400e46:	68 1d 00 00 00       	pushq  $0x1d
  400e4b:	e9 10 fe ff ff       	jmpq   400c60 <.plt>

0000000000400e50 <__fprintf_chk@plt>:
  400e50:	ff 25 b2 32 20 00    	jmpq   *0x2032b2(%rip)        # 604108 <__fprintf_chk@GLIBC_2.3.4>
  400e56:	68 1e 00 00 00       	pushq  $0x1e
  400e5b:	e9 00 fe ff ff       	jmpq   400c60 <.plt>

0000000000400e60 <__sprintf_chk@plt>:
  400e60:	ff 25 aa 32 20 00    	jmpq   *0x2032aa(%rip)        # 604110 <__sprintf_chk@GLIBC_2.3.4>
  400e66:	68 1f 00 00 00       	pushq  $0x1f
  400e6b:	e9 f0 fd ff ff       	jmpq   400c60 <.plt>

0000000000400e70 <socket@plt>:
  400e70:	ff 25 a2 32 20 00    	jmpq   *0x2032a2(%rip)        # 604118 <socket@GLIBC_2.2.5>
  400e76:	68 20 00 00 00       	pushq  $0x20
  400e7b:	e9 e0 fd ff ff       	jmpq   400c60 <.plt>

Disassembly of section .text:

0000000000400e80 <_start>:
  400e80:	31 ed                	xor    %ebp,%ebp
  400e82:	49 89 d1             	mov    %rdx,%r9
  400e85:	5e                   	pop    %rsi
  400e86:	48 89 e2             	mov    %rsp,%rdx
  400e89:	48 83 e4 f0          	and    $0xfffffffffffffff0,%rsp
  400e8d:	50                   	push   %rax
  400e8e:	54                   	push   %rsp
  400e8f:	49 c7 c0 70 2e 40 00 	mov    $0x402e70,%r8
  400e96:	48 c7 c1 00 2e 40 00 	mov    $0x402e00,%rcx
  400e9d:	48 c7 c7 73 11 40 00 	mov    $0x401173,%rdi
  400ea4:	ff 15 46 31 20 00    	callq  *0x203146(%rip)        # 603ff0 <__libc_start_main@GLIBC_2.2.5>
  400eaa:	f4                   	hlt    
  400eab:	0f 1f 44 00 00       	nopl   0x0(%rax,%rax,1)

0000000000400eb0 <_dl_relocate_static_pie>:
  400eb0:	f3 c3                	repz retq 
  400eb2:	66 2e 0f 1f 84 00 00 	nopw   %cs:0x0(%rax,%rax,1)
  400eb9:	00 00 00 
  400ebc:	0f 1f 40 00          	nopl   0x0(%rax)

0000000000400ec0 <deregister_tm_clones>:
  400ec0:	55                   	push   %rbp
  400ec1:	b8 90 44 60 00       	mov    $0x604490,%eax
  400ec6:	48 3d 90 44 60 00    	cmp    $0x604490,%rax
  400ecc:	48 89 e5             	mov    %rsp,%rbp
  400ecf:	74 17                	je     400ee8 <deregister_tm_clones+0x28>
  400ed1:	b8 00 00 00 00       	mov    $0x0,%eax
  400ed6:	48 85 c0             	test   %rax,%rax
  400ed9:	74 0d                	je     400ee8 <deregister_tm_clones+0x28>
  400edb:	5d                   	pop    %rbp
  400edc:	bf 90 44 60 00       	mov    $0x604490,%edi
  400ee1:	ff e0                	jmpq   *%rax
  400ee3:	0f 1f 44 00 00       	nopl   0x0(%rax,%rax,1)
  400ee8:	5d                   	pop    %rbp
  400ee9:	c3                   	retq   
  400eea:	66 0f 1f 44 00 00    	nopw   0x0(%rax,%rax,1)

0000000000400ef0 <register_tm_clones>:
  400ef0:	be 90 44 60 00       	mov    $0x604490,%esi
  400ef5:	55                   	push   %rbp
  400ef6:	48 81 ee 90 44 60 00 	sub    $0x604490,%rsi
  400efd:	48 89 e5             	mov    %rsp,%rbp
  400f00:	48 c1 fe 03          	sar    $0x3,%rsi
  400f04:	48 89 f0             	mov    %rsi,%rax
  400f07:	48 c1 e8 3f          	shr    $0x3f,%rax
  400f0b:	48 01 c6             	add    %rax,%rsi
  400f0e:	48 d1 fe             	sar    %rsi
  400f11:	74 15                	je     400f28 <register_tm_clones+0x38>
  400f13:	b8 00 00 00 00       	mov    $0x0,%eax
  400f18:	48 85 c0             	test   %rax,%rax
  400f1b:	74 0b                	je     400f28 <register_tm_clones+0x38>
  400f1d:	5d                   	pop    %rbp
  400f1e:	bf 90 44 60 00       	mov    $0x604490,%edi
  400f23:	ff e0                	jmpq   *%rax
  400f25:	0f 1f 00             	nopl   (%rax)
  400f28:	5d                   	pop    %rbp
  400f29:	c3                   	retq   
  400f2a:	66 0f 1f 44 00 00    	nopw   0x0(%rax,%rax,1)

0000000000400f30 <__do_global_dtors_aux>:
  400f30:	80 3d 91 35 20 00 00 	cmpb   $0x0,0x203591(%rip)        # 6044c8 <completed.7698>
  400f37:	75 17                	jne    400f50 <__do_global_dtors_aux+0x20>
  400f39:	55                   	push   %rbp
  400f3a:	48 89 e5             	mov    %rsp,%rbp
  400f3d:	e8 7e ff ff ff       	callq  400ec0 <deregister_tm_clones>
  400f42:	c6 05 7f 35 20 00 01 	movb   $0x1,0x20357f(%rip)        # 6044c8 <completed.7698>
  400f49:	5d                   	pop    %rbp
  400f4a:	c3                   	retq   
  400f4b:	0f 1f 44 00 00       	nopl   0x0(%rax,%rax,1)
  400f50:	f3 c3                	repz retq 
  400f52:	0f 1f 40 00          	nopl   0x0(%rax)
  400f56:	66 2e 0f 1f 84 00 00 	nopw   %cs:0x0(%rax,%rax,1)
  400f5d:	00 00 00 

0000000000400f60 <frame_dummy>:
  400f60:	55                   	push   %rbp
  400f61:	48 89 e5             	mov    %rsp,%rbp
  400f64:	5d                   	pop    %rbp
  400f65:	eb 89                	jmp    400ef0 <register_tm_clones>

0000000000400f67 <usage>:
  400f67:	48 83 ec 08          	sub    $0x8,%rsp
  400f6b:	48 89 fa             	mov    %rdi,%rdx
  400f6e:	83 3d 93 35 20 00 00 	cmpl   $0x0,0x203593(%rip)        # 604508 <is_checker>
  400f75:	74 46                	je     400fbd <usage+0x56>
  400f77:	be 88 2e 40 00       	mov    $0x402e88,%esi
  400f7c:	bf 01 00 00 00       	mov    $0x1,%edi
  400f81:	b8 00 00 00 00       	mov    $0x0,%eax
  400f86:	e8 55 fe ff ff       	callq  400de0 <__printf_chk@plt>
  400f8b:	bf c0 2e 40 00       	mov    $0x402ec0,%edi
  400f90:	e8 2b fd ff ff       	callq  400cc0 <puts@plt>
  400f95:	bf 38 30 40 00       	mov    $0x403038,%edi
  400f9a:	e8 21 fd ff ff       	callq  400cc0 <puts@plt>
  400f9f:	bf e8 2e 40 00       	mov    $0x402ee8,%edi
  400fa4:	e8 17 fd ff ff       	callq  400cc0 <puts@plt>
  400fa9:	bf 52 30 40 00       	mov    $0x403052,%edi
  400fae:	e8 0d fd ff ff       	callq  400cc0 <puts@plt>
  400fb3:	bf 00 00 00 00       	mov    $0x0,%edi
  400fb8:	e8 73 fe ff ff       	callq  400e30 <exit@plt>
  400fbd:	be 6e 30 40 00       	mov    $0x40306e,%esi
  400fc2:	bf 01 00 00 00       	mov    $0x1,%edi
  400fc7:	b8 00 00 00 00       	mov    $0x0,%eax
  400fcc:	e8 0f fe ff ff       	callq  400de0 <__printf_chk@plt>
  400fd1:	bf 10 2f 40 00       	mov    $0x402f10,%edi
  400fd6:	e8 e5 fc ff ff       	callq  400cc0 <puts@plt>
  400fdb:	bf 38 2f 40 00       	mov    $0x402f38,%edi
  400fe0:	e8 db fc ff ff       	callq  400cc0 <puts@plt>
  400fe5:	bf 8c 30 40 00       	mov    $0x40308c,%edi
  400fea:	e8 d1 fc ff ff       	callq  400cc0 <puts@plt>
  400fef:	eb c2                	jmp    400fb3 <usage+0x4c>

0000000000400ff1 <initialize_target>:
  400ff1:	55                   	push   %rbp
  400ff2:	53                   	push   %rbx
  400ff3:	48 81 ec 18 21 00 00 	sub    $0x2118,%rsp
  400ffa:	89 f5                	mov    %esi,%ebp
  400ffc:	64 48 8b 04 25 28 00 	mov    %fs:0x28,%rax
  401003:	00 00 
  401005:	48 89 84 24 08 21 00 	mov    %rax,0x2108(%rsp)
  40100c:	00 
  40100d:	31 c0                	xor    %eax,%eax
  40100f:	89 3d e3 34 20 00    	mov    %edi,0x2034e3(%rip)        # 6044f8 <check_level>
  401015:	8b 3d 2d 31 20 00    	mov    0x20312d(%rip),%edi        # 604148 <target_id>
  40101b:	e8 b7 1d 00 00       	callq  402dd7 <gencookie>
  401020:	89 05 de 34 20 00    	mov    %eax,0x2034de(%rip)        # 604504 <cookie>
  401026:	89 c7                	mov    %eax,%edi
  401028:	e8 aa 1d 00 00       	callq  402dd7 <gencookie>
  40102d:	89 05 cd 34 20 00    	mov    %eax,0x2034cd(%rip)        # 604500 <authkey>
  401033:	8b 05 0f 31 20 00    	mov    0x20310f(%rip),%eax        # 604148 <target_id>
  401039:	8d 78 01             	lea    0x1(%rax),%edi
  40103c:	e8 4f fc ff ff       	callq  400c90 <srandom@plt>
  401041:	e8 5a fd ff ff       	callq  400da0 <random@plt>
  401046:	89 c7                	mov    %eax,%edi
  401048:	e8 f2 02 00 00       	callq  40133f <scramble>
  40104d:	89 c3                	mov    %eax,%ebx
  40104f:	85 ed                	test   %ebp,%ebp
  401051:	75 54                	jne    4010a7 <initialize_target+0xb6>
  401053:	b8 00 00 00 00       	mov    $0x0,%eax
  401058:	01 d8                	add    %ebx,%eax
  40105a:	0f b7 c0             	movzwl %ax,%eax
  40105d:	8d 04 c5 00 01 00 00 	lea    0x100(,%rax,8),%eax
  401064:	89 c0                	mov    %eax,%eax
  401066:	48 89 05 13 34 20 00 	mov    %rax,0x203413(%rip)        # 604480 <buf_offset>
  40106d:	c6 05 b4 40 20 00 63 	movb   $0x63,0x2040b4(%rip)        # 605128 <target_prefix>
  401074:	83 3d 0d 34 20 00 00 	cmpl   $0x0,0x20340d(%rip)        # 604488 <notify>
  40107b:	74 09                	je     401086 <initialize_target+0x95>
  40107d:	83 3d 84 34 20 00 00 	cmpl   $0x0,0x203484(%rip)        # 604508 <is_checker>
  401084:	74 39                	je     4010bf <initialize_target+0xce>
  401086:	48 8b 84 24 08 21 00 	mov    0x2108(%rsp),%rax
  40108d:	00 
  40108e:	64 48 33 04 25 28 00 	xor    %fs:0x28,%rax
  401095:	00 00 
  401097:	0f 85 d1 00 00 00    	jne    40116e <initialize_target+0x17d>
  40109d:	48 81 c4 18 21 00 00 	add    $0x2118,%rsp
  4010a4:	5b                   	pop    %rbx
  4010a5:	5d                   	pop    %rbp
  4010a6:	c3                   	retq   
  4010a7:	bf 00 00 00 00       	mov    $0x0,%edi
  4010ac:	e8 df fc ff ff       	callq  400d90 <time@plt>
  4010b1:	89 c7                	mov    %eax,%edi
  4010b3:	e8 d8 fb ff ff       	callq  400c90 <srandom@plt>
  4010b8:	e8 e3 fc ff ff       	callq  400da0 <random@plt>
  4010bd:	eb 99                	jmp    401058 <initialize_target+0x67>
  4010bf:	be 00 01 00 00       	mov    $0x100,%esi
  4010c4:	48 89 e7             	mov    %rsp,%rdi
  4010c7:	e8 54 fd ff ff       	callq  400e20 <gethostname@plt>
  4010cc:	89 c5                	mov    %eax,%ebp
  4010ce:	85 c0                	test   %eax,%eax
  4010d0:	75 23                	jne    4010f5 <initialize_target+0x104>
  4010d2:	89 c3                	mov    %eax,%ebx
  4010d4:	48 63 c3             	movslq %ebx,%rax
  4010d7:	48 8b 3c c5 60 41 60 	mov    0x604160(,%rax,8),%rdi
  4010de:	00 
  4010df:	48 85 ff             	test   %rdi,%rdi
  4010e2:	74 2a                	je     40110e <initialize_target+0x11d>
  4010e4:	48 89 e6             	mov    %rsp,%rsi
  4010e7:	e8 84 fb ff ff       	callq  400c70 <strcasecmp@plt>
  4010ec:	85 c0                	test   %eax,%eax
  4010ee:	74 19                	je     401109 <initialize_target+0x118>
  4010f0:	83 c3 01             	add    $0x1,%ebx
  4010f3:	eb df                	jmp    4010d4 <initialize_target+0xe3>
  4010f5:	bf 68 2f 40 00       	mov    $0x402f68,%edi
  4010fa:	e8 c1 fb ff ff       	callq  400cc0 <puts@plt>
  4010ff:	bf 08 00 00 00       	mov    $0x8,%edi
  401104:	e8 27 fd ff ff       	callq  400e30 <exit@plt>
  401109:	bd 01 00 00 00       	mov    $0x1,%ebp
  40110e:	85 ed                	test   %ebp,%ebp
  401110:	74 3b                	je     40114d <initialize_target+0x15c>
  401112:	48 8d bc 24 00 01 00 	lea    0x100(%rsp),%rdi
  401119:	00 
  40111a:	e8 0d 1a 00 00       	callq  402b2c <init_driver>
  40111f:	85 c0                	test   %eax,%eax
  401121:	0f 89 5f ff ff ff    	jns    401086 <initialize_target+0x95>
  401127:	48 8d 94 24 00 01 00 	lea    0x100(%rsp),%rdx
  40112e:	00 
  40112f:	be e0 2f 40 00       	mov    $0x402fe0,%esi
  401134:	bf 01 00 00 00       	mov    $0x1,%edi
  401139:	b8 00 00 00 00       	mov    $0x0,%eax
  40113e:	e8 9d fc ff ff       	callq  400de0 <__printf_chk@plt>
  401143:	bf 08 00 00 00       	mov    $0x8,%edi
  401148:	e8 e3 fc ff ff       	callq  400e30 <exit@plt>
  40114d:	48 89 e2             	mov    %rsp,%rdx
  401150:	be a0 2f 40 00       	mov    $0x402fa0,%esi
  401155:	bf 01 00 00 00       	mov    $0x1,%edi
  40115a:	b8 00 00 00 00       	mov    $0x0,%eax
  40115f:	e8 7c fc ff ff       	callq  400de0 <__printf_chk@plt>
  401164:	bf 08 00 00 00       	mov    $0x8,%edi
  401169:	e8 c2 fc ff ff       	callq  400e30 <exit@plt>
  40116e:	e8 6d fb ff ff       	callq  400ce0 <__stack_chk_fail@plt>

0000000000401173 <main>:
  401173:	41 56                	push   %r14
  401175:	41 55                	push   %r13
  401177:	41 54                	push   %r12
  401179:	55                   	push   %rbp
  40117a:	53                   	push   %rbx
  40117b:	41 89 fc             	mov    %edi,%r12d
  40117e:	48 89 f3             	mov    %rsi,%rbx
  401181:	be 69 1e 40 00       	mov    $0x401e69,%esi
  401186:	bf 0b 00 00 00       	mov    $0xb,%edi
  40118b:	e8 b0 fb ff ff       	callq  400d40 <signal@plt>
  401190:	be 1b 1e 40 00       	mov    $0x401e1b,%esi
  401195:	bf 07 00 00 00       	mov    $0x7,%edi
  40119a:	e8 a1 fb ff ff       	callq  400d40 <signal@plt>
  40119f:	be b7 1e 40 00       	mov    $0x401eb7,%esi
  4011a4:	bf 04 00 00 00       	mov    $0x4,%edi
  4011a9:	e8 92 fb ff ff       	callq  400d40 <signal@plt>
  4011ae:	83 3d 53 33 20 00 00 	cmpl   $0x0,0x203353(%rip)        # 604508 <is_checker>
  4011b5:	75 24                	jne    4011db <main+0x68>
  4011b7:	bd a5 30 40 00       	mov    $0x4030a5,%ebp
  4011bc:	48 8b 05 dd 32 20 00 	mov    0x2032dd(%rip),%rax        # 6044a0 <stdin@@GLIBC_2.2.5>
  4011c3:	48 89 05 26 33 20 00 	mov    %rax,0x203326(%rip)        # 6044f0 <infile>
  4011ca:	41 bd 00 00 00 00    	mov    $0x0,%r13d
  4011d0:	41 be 00 00 00 00    	mov    $0x0,%r14d
  4011d6:	e9 85 00 00 00       	jmpq   401260 <main+0xed>
  4011db:	be 05 1f 40 00       	mov    $0x401f05,%esi
  4011e0:	bf 0e 00 00 00       	mov    $0xe,%edi
  4011e5:	e8 56 fb ff ff       	callq  400d40 <signal@plt>
  4011ea:	bf 05 00 00 00       	mov    $0x5,%edi
  4011ef:	e8 1c fb ff ff       	callq  400d10 <alarm@plt>
  4011f4:	bd aa 30 40 00       	mov    $0x4030aa,%ebp
  4011f9:	eb c1                	jmp    4011bc <main+0x49>
  4011fb:	48 8b 3b             	mov    (%rbx),%rdi
  4011fe:	e8 64 fd ff ff       	callq  400f67 <usage>
  401203:	be 75 33 40 00       	mov    $0x403375,%esi
  401208:	48 8b 3d 99 32 20 00 	mov    0x203299(%rip),%rdi        # 6044a8 <optarg@@GLIBC_2.2.5>
  40120f:	e8 dc fb ff ff       	callq  400df0 <fopen@plt>
  401214:	48 89 05 d5 32 20 00 	mov    %rax,0x2032d5(%rip)        # 6044f0 <infile>
  40121b:	48 85 c0             	test   %rax,%rax
  40121e:	75 40                	jne    401260 <main+0xed>
  401220:	48 8b 0d 81 32 20 00 	mov    0x203281(%rip),%rcx        # 6044a8 <optarg@@GLIBC_2.2.5>
  401227:	ba b2 30 40 00       	mov    $0x4030b2,%edx
  40122c:	be 01 00 00 00       	mov    $0x1,%esi
  401231:	48 8b 3d 88 32 20 00 	mov    0x203288(%rip),%rdi        # 6044c0 <stderr@@GLIBC_2.2.5>
  401238:	e8 13 fc ff ff       	callq  400e50 <__fprintf_chk@plt>
  40123d:	b8 01 00 00 00       	mov    $0x1,%eax
  401242:	e9 cc 00 00 00       	jmpq   401313 <main+0x1a0>
  401247:	ba 10 00 00 00       	mov    $0x10,%edx
  40124c:	be 00 00 00 00       	mov    $0x0,%esi
  401251:	48 8b 3d 50 32 20 00 	mov    0x203250(%rip),%rdi        # 6044a8 <optarg@@GLIBC_2.2.5>
  401258:	e8 b3 fb ff ff       	callq  400e10 <strtoul@plt>
  40125d:	41 89 c6             	mov    %eax,%r14d
  401260:	48 89 ea             	mov    %rbp,%rdx
  401263:	48 89 de             	mov    %rbx,%rsi
  401266:	44 89 e7             	mov    %r12d,%edi
  401269:	e8 92 fb ff ff       	callq  400e00 <getopt@plt>
  40126e:	3c ff                	cmp    $0xff,%al
  401270:	74 57                	je     4012c9 <main+0x156>
  401272:	0f be d0             	movsbl %al,%edx
  401275:	83 e8 61             	sub    $0x61,%eax
  401278:	3c 10                	cmp    $0x10,%al
  40127a:	77 31                	ja     4012ad <main+0x13a>
  40127c:	0f b6 c0             	movzbl %al,%eax
  40127f:	ff 24 c5 f0 30 40 00 	jmpq   *0x4030f0(,%rax,8)
  401286:	ba 0a 00 00 00       	mov    $0xa,%edx
  40128b:	be 00 00 00 00       	mov    $0x0,%esi
  401290:	48 8b 3d 11 32 20 00 	mov    0x203211(%rip),%rdi        # 6044a8 <optarg@@GLIBC_2.2.5>
  401297:	e8 d4 fa ff ff       	callq  400d70 <strtol@plt>
  40129c:	41 89 c5             	mov    %eax,%r13d
  40129f:	eb bf                	jmp    401260 <main+0xed>
  4012a1:	c7 05 dd 31 20 00 00 	movl   $0x0,0x2031dd(%rip)        # 604488 <notify>
  4012a8:	00 00 00 
  4012ab:	eb b3                	jmp    401260 <main+0xed>
  4012ad:	be cf 30 40 00       	mov    $0x4030cf,%esi
  4012b2:	bf 01 00 00 00       	mov    $0x1,%edi
  4012b7:	b8 00 00 00 00       	mov    $0x0,%eax
  4012bc:	e8 1f fb ff ff       	callq  400de0 <__printf_chk@plt>
  4012c1:	48 8b 3b             	mov    (%rbx),%rdi
  4012c4:	e8 9e fc ff ff       	callq  400f67 <usage>
  4012c9:	be 00 00 00 00       	mov    $0x0,%esi
  4012ce:	44 89 ef             	mov    %r13d,%edi
  4012d1:	e8 1b fd ff ff       	callq  400ff1 <initialize_target>
  4012d6:	83 3d 2b 32 20 00 00 	cmpl   $0x0,0x20322b(%rip)        # 604508 <is_checker>
  4012dd:	74 09                	je     4012e8 <main+0x175>
  4012df:	44 39 35 1a 32 20 00 	cmp    %r14d,0x20321a(%rip)        # 604500 <authkey>
  4012e6:	75 34                	jne    40131c <main+0x1a9>
  4012e8:	8b 15 16 32 20 00    	mov    0x203216(%rip),%edx        # 604504 <cookie>
  4012ee:	be e2 30 40 00       	mov    $0x4030e2,%esi
  4012f3:	bf 01 00 00 00       	mov    $0x1,%edi
  4012f8:	b8 00 00 00 00       	mov    $0x0,%eax
  4012fd:	e8 de fa ff ff       	callq  400de0 <__printf_chk@plt>
  401302:	48 8b 3d 77 31 20 00 	mov    0x203177(%rip),%rdi        # 604480 <buf_offset>
  401309:	e8 f9 0c 00 00       	callq  402007 <stable_launch>
  40130e:	b8 00 00 00 00       	mov    $0x0,%eax
  401313:	5b                   	pop    %rbx
  401314:	5d                   	pop    %rbp
  401315:	41 5c                	pop    %r12
  401317:	41 5d                	pop    %r13
  401319:	41 5e                	pop    %r14
  40131b:	c3                   	retq   
  40131c:	44 89 f2             	mov    %r14d,%edx
  40131f:	be 08 30 40 00       	mov    $0x403008,%esi
  401324:	bf 01 00 00 00       	mov    $0x1,%edi
  401329:	b8 00 00 00 00       	mov    $0x0,%eax
  40132e:	e8 ad fa ff ff       	callq  400de0 <__printf_chk@plt>
  401333:	b8 00 00 00 00       	mov    $0x0,%eax
  401338:	e8 67 07 00 00       	callq  401aa4 <check_fail>
  40133d:	eb a9                	jmp    4012e8 <main+0x175>

000000000040133f <scramble>:
  40133f:	48 83 ec 38          	sub    $0x38,%rsp
  401343:	64 48 8b 04 25 28 00 	mov    %fs:0x28,%rax
  40134a:	00 00 
  40134c:	48 89 44 24 28       	mov    %rax,0x28(%rsp)
  401351:	31 c0                	xor    %eax,%eax
  401353:	eb 10                	jmp    401365 <scramble+0x26>
  401355:	69 d0 98 45 00 00    	imul   $0x4598,%eax,%edx
  40135b:	01 fa                	add    %edi,%edx
  40135d:	89 c1                	mov    %eax,%ecx
  40135f:	89 14 8c             	mov    %edx,(%rsp,%rcx,4)
  401362:	83 c0 01             	add    $0x1,%eax
  401365:	83 f8 09             	cmp    $0x9,%eax
  401368:	76 eb                	jbe    401355 <scramble+0x16>
  40136a:	8b 44 24 24          	mov    0x24(%rsp),%eax
  40136e:	69 c0 22 1a 00 00    	imul   $0x1a22,%eax,%eax
  401374:	89 44 24 24          	mov    %eax,0x24(%rsp)
  401378:	8b 44 24 0c          	mov    0xc(%rsp),%eax
  40137c:	69 c0 57 5a 00 00    	imul   $0x5a57,%eax,%eax
  401382:	89 44 24 0c          	mov    %eax,0xc(%rsp)
  401386:	8b 44 24 04          	mov    0x4(%rsp),%eax
  40138a:	69 c0 de 08 00 00    	imul   $0x8de,%eax,%eax
  401390:	89 44 24 04          	mov    %eax,0x4(%rsp)
  401394:	8b 44 24 0c          	mov    0xc(%rsp),%eax
  401398:	69 c0 b9 11 00 00    	imul   $0x11b9,%eax,%eax
  40139e:	89 44 24 0c          	mov    %eax,0xc(%rsp)
  4013a2:	8b 44 24 04          	mov    0x4(%rsp),%eax
  4013a6:	69 c0 f7 9c 00 00    	imul   $0x9cf7,%eax,%eax
  4013ac:	89 44 24 04          	mov    %eax,0x4(%rsp)
  4013b0:	8b 44 24 1c          	mov    0x1c(%rsp),%eax
  4013b4:	69 c0 64 35 00 00    	imul   $0x3564,%eax,%eax
  4013ba:	89 44 24 1c          	mov    %eax,0x1c(%rsp)
  4013be:	8b 44 24 10          	mov    0x10(%rsp),%eax
  4013c2:	69 c0 7f af 00 00    	imul   $0xaf7f,%eax,%eax
  4013c8:	89 44 24 10          	mov    %eax,0x10(%rsp)
  4013cc:	8b 44 24 20          	mov    0x20(%rsp),%eax
  4013d0:	69 c0 d4 f2 00 00    	imul   $0xf2d4,%eax,%eax
  4013d6:	89 44 24 20          	mov    %eax,0x20(%rsp)
  4013da:	8b 44 24 1c          	mov    0x1c(%rsp),%eax
  4013de:	69 c0 c1 5c 00 00    	imul   $0x5cc1,%eax,%eax
  4013e4:	89 44 24 1c          	mov    %eax,0x1c(%rsp)
  4013e8:	8b 44 24 20          	mov    0x20(%rsp),%eax
  4013ec:	69 c0 51 0e 00 00    	imul   $0xe51,%eax,%eax
  4013f2:	89 44 24 20          	mov    %eax,0x20(%rsp)
  4013f6:	8b 44 24 08          	mov    0x8(%rsp),%eax
  4013fa:	69 c0 69 a4 00 00    	imul   $0xa469,%eax,%eax
  401400:	89 44 24 08          	mov    %eax,0x8(%rsp)
  401404:	8b 44 24 1c          	mov    0x1c(%rsp),%eax
  401408:	69 c0 d4 28 00 00    	imul   $0x28d4,%eax,%eax
  40140e:	89 44 24 1c          	mov    %eax,0x1c(%rsp)
  401412:	8b 44 24 1c          	mov    0x1c(%rsp),%eax
  401416:	69 c0 36 28 00 00    	imul   $0x2836,%eax,%eax
  40141c:	89 44 24 1c          	mov    %eax,0x1c(%rsp)
  401420:	8b 44 24 0c          	mov    0xc(%rsp),%eax
  401424:	69 c0 57 9d 00 00    	imul   $0x9d57,%eax,%eax
  40142a:	89 44 24 0c          	mov    %eax,0xc(%rsp)
  40142e:	8b 44 24 08          	mov    0x8(%rsp),%eax
  401432:	69 c0 91 13 00 00    	imul   $0x1391,%eax,%eax
  401438:	89 44 24 08          	mov    %eax,0x8(%rsp)
  40143c:	8b 44 24 1c          	mov    0x1c(%rsp),%eax
  401440:	69 c0 6c a4 00 00    	imul   $0xa46c,%eax,%eax
  401446:	89 44 24 1c          	mov    %eax,0x1c(%rsp)
  40144a:	8b 44 24 0c          	mov    0xc(%rsp),%eax
  40144e:	69 c0 4d fb 00 00    	imul   $0xfb4d,%eax,%eax
  401454:	89 44 24 0c          	mov    %eax,0xc(%rsp)
  401458:	8b 44 24 14          	mov    0x14(%rsp),%eax
  40145c:	69 c0 81 86 00 00    	imul   $0x8681,%eax,%eax
  401462:	89 44 24 14          	mov    %eax,0x14(%rsp)
  401466:	8b 04 24             	mov    (%rsp),%eax
  401469:	69 c0 99 c8 00 00    	imul   $0xc899,%eax,%eax
  40146f:	89 04 24             	mov    %eax,(%rsp)
  401472:	8b 44 24 18          	mov    0x18(%rsp),%eax
  401476:	69 c0 ac 9e 00 00    	imul   $0x9eac,%eax,%eax
  40147c:	89 44 24 18          	mov    %eax,0x18(%rsp)
  401480:	8b 44 24 1c          	mov    0x1c(%rsp),%eax
  401484:	69 c0 af 84 00 00    	imul   $0x84af,%eax,%eax
  40148a:	89 44 24 1c          	mov    %eax,0x1c(%rsp)
  40148e:	8b 04 24             	mov    (%rsp),%eax
  401491:	69 c0 97 9e 00 00    	imul   $0x9e97,%eax,%eax
  401497:	89 04 24             	mov    %eax,(%rsp)
  40149a:	8b 44 24 18          	mov    0x18(%rsp),%eax
  40149e:	69 c0 07 8d 00 00    	imul   $0x8d07,%eax,%eax
  4014a4:	89 44 24 18          	mov    %eax,0x18(%rsp)
  4014a8:	8b 44 24 20          	mov    0x20(%rsp),%eax
  4014ac:	69 c0 c5 c1 00 00    	imul   $0xc1c5,%eax,%eax
  4014b2:	89 44 24 20          	mov    %eax,0x20(%rsp)
  4014b6:	8b 44 24 18          	mov    0x18(%rsp),%eax
  4014ba:	69 c0 81 21 00 00    	imul   $0x2181,%eax,%eax
  4014c0:	89 44 24 18          	mov    %eax,0x18(%rsp)
  4014c4:	8b 44 24 08          	mov    0x8(%rsp),%eax
  4014c8:	69 c0 f7 d3 00 00    	imul   $0xd3f7,%eax,%eax
  4014ce:	89 44 24 08          	mov    %eax,0x8(%rsp)
  4014d2:	8b 44 24 24          	mov    0x24(%rsp),%eax
  4014d6:	69 c0 d4 df 00 00    	imul   $0xdfd4,%eax,%eax
  4014dc:	89 44 24 24          	mov    %eax,0x24(%rsp)
  4014e0:	8b 44 24 10          	mov    0x10(%rsp),%eax
  4014e4:	69 c0 12 aa 00 00    	imul   $0xaa12,%eax,%eax
  4014ea:	89 44 24 10          	mov    %eax,0x10(%rsp)
  4014ee:	8b 44 24 1c          	mov    0x1c(%rsp),%eax
  4014f2:	69 c0 15 e9 00 00    	imul   $0xe915,%eax,%eax
  4014f8:	89 44 24 1c          	mov    %eax,0x1c(%rsp)
  4014fc:	8b 44 24 10          	mov    0x10(%rsp),%eax
  401500:	69 c0 dd 66 00 00    	imul   $0x66dd,%eax,%eax
  401506:	89 44 24 10          	mov    %eax,0x10(%rsp)
  40150a:	8b 44 24 04          	mov    0x4(%rsp),%eax
  40150e:	69 c0 39 28 00 00    	imul   $0x2839,%eax,%eax
  401514:	89 44 24 04          	mov    %eax,0x4(%rsp)
  401518:	8b 44 24 0c          	mov    0xc(%rsp),%eax
  40151c:	69 c0 59 2a 00 00    	imul   $0x2a59,%eax,%eax
  401522:	89 44 24 0c          	mov    %eax,0xc(%rsp)
  401526:	8b 44 24 18          	mov    0x18(%rsp),%eax
  40152a:	69 c0 0d 0a 00 00    	imul   $0xa0d,%eax,%eax
  401530:	89 44 24 18          	mov    %eax,0x18(%rsp)
  401534:	8b 44 24 10          	mov    0x10(%rsp),%eax
  401538:	69 c0 b2 27 00 00    	imul   $0x27b2,%eax,%eax
  40153e:	89 44 24 10          	mov    %eax,0x10(%rsp)
  401542:	8b 44 24 24          	mov    0x24(%rsp),%eax
  401546:	69 c0 15 49 00 00    	imul   $0x4915,%eax,%eax
  40154c:	89 44 24 24          	mov    %eax,0x24(%rsp)
  401550:	8b 44 24 08          	mov    0x8(%rsp),%eax
  401554:	69 c0 36 38 00 00    	imul   $0x3836,%eax,%eax
  40155a:	89 44 24 08          	mov    %eax,0x8(%rsp)
  40155e:	8b 44 24 18          	mov    0x18(%rsp),%eax
  401562:	69 c0 70 9a 00 00    	imul   $0x9a70,%eax,%eax
  401568:	89 44 24 18          	mov    %eax,0x18(%rsp)
  40156c:	8b 44 24 04          	mov    0x4(%rsp),%eax
  401570:	69 c0 f3 01 00 00    	imul   $0x1f3,%eax,%eax
  401576:	89 44 24 04          	mov    %eax,0x4(%rsp)
  40157a:	8b 44 24 10          	mov    0x10(%rsp),%eax
  40157e:	69 c0 3a 68 00 00    	imul   $0x683a,%eax,%eax
  401584:	89 44 24 10          	mov    %eax,0x10(%rsp)
  401588:	8b 44 24 1c          	mov    0x1c(%rsp),%eax
  40158c:	69 c0 3f 11 00 00    	imul   $0x113f,%eax,%eax
  401592:	89 44 24 1c          	mov    %eax,0x1c(%rsp)
  401596:	8b 04 24             	mov    (%rsp),%eax
  401599:	69 c0 ce 93 00 00    	imul   $0x93ce,%eax,%eax
  40159f:	89 04 24             	mov    %eax,(%rsp)
  4015a2:	8b 04 24             	mov    (%rsp),%eax
  4015a5:	69 c0 a6 4f 00 00    	imul   $0x4fa6,%eax,%eax
  4015ab:	89 04 24             	mov    %eax,(%rsp)
  4015ae:	8b 44 24 10          	mov    0x10(%rsp),%eax
  4015b2:	69 c0 02 e2 00 00    	imul   $0xe202,%eax,%eax
  4015b8:	89 44 24 10          	mov    %eax,0x10(%rsp)
  4015bc:	8b 44 24 04          	mov    0x4(%rsp),%eax
  4015c0:	69 c0 ac 7b 00 00    	imul   $0x7bac,%eax,%eax
  4015c6:	89 44 24 04          	mov    %eax,0x4(%rsp)
  4015ca:	8b 44 24 14          	mov    0x14(%rsp),%eax
  4015ce:	69 c0 21 41 00 00    	imul   $0x4121,%eax,%eax
  4015d4:	89 44 24 14          	mov    %eax,0x14(%rsp)
  4015d8:	8b 44 24 0c          	mov    0xc(%rsp),%eax
  4015dc:	69 c0 bd c7 00 00    	imul   $0xc7bd,%eax,%eax
  4015e2:	89 44 24 0c          	mov    %eax,0xc(%rsp)
  4015e6:	8b 04 24             	mov    (%rsp),%eax
  4015e9:	69 c0 d3 ed 00 00    	imul   $0xedd3,%eax,%eax
  4015ef:	89 04 24             	mov    %eax,(%rsp)
  4015f2:	8b 44 24 18          	mov    0x18(%rsp),%eax
  4015f6:	69 c0 e2 8c 00 00    	imul   $0x8ce2,%eax,%eax
  4015fc:	89 44 24 18          	mov    %eax,0x18(%rsp)
  401600:	8b 44 24 10          	mov    0x10(%rsp),%eax
  401604:	69 c0 f1 a2 00 00    	imul   $0xa2f1,%eax,%eax
  40160a:	89 44 24 10          	mov    %eax,0x10(%rsp)
  40160e:	8b 44 24 18          	mov    0x18(%rsp),%eax
  401612:	69 c0 86 ca 00 00    	imul   $0xca86,%eax,%eax
  401618:	89 44 24 18          	mov    %eax,0x18(%rsp)
  40161c:	8b 44 24 08          	mov    0x8(%rsp),%eax
  401620:	69 c0 f3 7a 00 00    	imul   $0x7af3,%eax,%eax
  401626:	89 44 24 08          	mov    %eax,0x8(%rsp)
  40162a:	8b 44 24 14          	mov    0x14(%rsp),%eax
  40162e:	69 c0 ca b9 00 00    	imul   $0xb9ca,%eax,%eax
  401634:	89 44 24 14          	mov    %eax,0x14(%rsp)
  401638:	8b 44 24 0c          	mov    0xc(%rsp),%eax
  40163c:	69 c0 8a d9 00 00    	imul   $0xd98a,%eax,%eax
  401642:	89 44 24 0c          	mov    %eax,0xc(%rsp)
  401646:	8b 44 24 08          	mov    0x8(%rsp),%eax
  40164a:	69 c0 da 3c 00 00    	imul   $0x3cda,%eax,%eax
  401650:	89 44 24 08          	mov    %eax,0x8(%rsp)
  401654:	8b 04 24             	mov    (%rsp),%eax
  401657:	69 c0 75 7f 00 00    	imul   $0x7f75,%eax,%eax
  40165d:	89 04 24             	mov    %eax,(%rsp)
  401660:	8b 44 24 1c          	mov    0x1c(%rsp),%eax
  401664:	69 c0 80 cb 00 00    	imul   $0xcb80,%eax,%eax
  40166a:	89 44 24 1c          	mov    %eax,0x1c(%rsp)
  40166e:	8b 44 24 10          	mov    0x10(%rsp),%eax
  401672:	69 c0 50 33 00 00    	imul   $0x3350,%eax,%eax
  401678:	89 44 24 10          	mov    %eax,0x10(%rsp)
  40167c:	8b 44 24 10          	mov    0x10(%rsp),%eax
  401680:	69 c0 e5 86 00 00    	imul   $0x86e5,%eax,%eax
  401686:	89 44 24 10          	mov    %eax,0x10(%rsp)
  40168a:	8b 44 24 14          	mov    0x14(%rsp),%eax
  40168e:	69 c0 de 14 00 00    	imul   $0x14de,%eax,%eax
  401694:	89 44 24 14          	mov    %eax,0x14(%rsp)
  401698:	8b 44 24 24          	mov    0x24(%rsp),%eax
  40169c:	69 c0 69 e0 00 00    	imul   $0xe069,%eax,%eax
  4016a2:	89 44 24 24          	mov    %eax,0x24(%rsp)
  4016a6:	8b 44 24 10          	mov    0x10(%rsp),%eax
  4016aa:	69 c0 1b e5 00 00    	imul   $0xe51b,%eax,%eax
  4016b0:	89 44 24 10          	mov    %eax,0x10(%rsp)
  4016b4:	8b 44 24 08          	mov    0x8(%rsp),%eax
  4016b8:	69 c0 5a bf 00 00    	imul   $0xbf5a,%eax,%eax
  4016be:	89 44 24 08          	mov    %eax,0x8(%rsp)
  4016c2:	8b 44 24 20          	mov    0x20(%rsp),%eax
  4016c6:	69 c0 3d 9a 00 00    	imul   $0x9a3d,%eax,%eax
  4016cc:	89 44 24 20          	mov    %eax,0x20(%rsp)
  4016d0:	8b 44 24 10          	mov    0x10(%rsp),%eax
  4016d4:	69 c0 ce ca 00 00    	imul   $0xcace,%eax,%eax
  4016da:	89 44 24 10          	mov    %eax,0x10(%rsp)
  4016de:	8b 04 24             	mov    (%rsp),%eax
  4016e1:	69 c0 d1 00 00 00    	imul   $0xd1,%eax,%eax
  4016e7:	89 04 24             	mov    %eax,(%rsp)
  4016ea:	8b 44 24 08          	mov    0x8(%rsp),%eax
  4016ee:	69 c0 34 29 00 00    	imul   $0x2934,%eax,%eax
  4016f4:	89 44 24 08          	mov    %eax,0x8(%rsp)
  4016f8:	8b 04 24             	mov    (%rsp),%eax
  4016fb:	69 c0 10 98 00 00    	imul   $0x9810,%eax,%eax
  401701:	89 04 24             	mov    %eax,(%rsp)
  401704:	8b 44 24 0c          	mov    0xc(%rsp),%eax
  401708:	69 c0 28 91 00 00    	imul   $0x9128,%eax,%eax
  40170e:	89 44 24 0c          	mov    %eax,0xc(%rsp)
  401712:	8b 44 24 18          	mov    0x18(%rsp),%eax
  401716:	69 c0 bc 9e 00 00    	imul   $0x9ebc,%eax,%eax
  40171c:	89 44 24 18          	mov    %eax,0x18(%rsp)
  401720:	8b 44 24 0c          	mov    0xc(%rsp),%eax
  401724:	69 c0 5f b3 00 00    	imul   $0xb35f,%eax,%eax
  40172a:	89 44 24 0c          	mov    %eax,0xc(%rsp)
  40172e:	8b 44 24 1c          	mov    0x1c(%rsp),%eax
  401732:	69 c0 1c 1c 00 00    	imul   $0x1c1c,%eax,%eax
  401738:	89 44 24 1c          	mov    %eax,0x1c(%rsp)
  40173c:	8b 44 24 24          	mov    0x24(%rsp),%eax
  401740:	69 c0 75 31 00 00    	imul   $0x3175,%eax,%eax
  401746:	89 44 24 24          	mov    %eax,0x24(%rsp)
  40174a:	8b 44 24 08          	mov    0x8(%rsp),%eax
  40174e:	69 c0 05 9a 00 00    	imul   $0x9a05,%eax,%eax
  401754:	89 44 24 08          	mov    %eax,0x8(%rsp)
  401758:	8b 44 24 24          	mov    0x24(%rsp),%eax
  40175c:	69 c0 bf 64 00 00    	imul   $0x64bf,%eax,%eax
  401762:	89 44 24 24          	mov    %eax,0x24(%rsp)
  401766:	8b 44 24 04          	mov    0x4(%rsp),%eax
  40176a:	69 c0 ec ba 00 00    	imul   $0xbaec,%eax,%eax
  401770:	89 44 24 04          	mov    %eax,0x4(%rsp)
  401774:	8b 44 24 0c          	mov    0xc(%rsp),%eax
  401778:	69 c0 e3 04 00 00    	imul   $0x4e3,%eax,%eax
  40177e:	89 44 24 0c          	mov    %eax,0xc(%rsp)
  401782:	8b 44 24 14          	mov    0x14(%rsp),%eax
  401786:	69 c0 4f ed 00 00    	imul   $0xed4f,%eax,%eax
  40178c:	89 44 24 14          	mov    %eax,0x14(%rsp)
  401790:	8b 44 24 08          	mov    0x8(%rsp),%eax
  401794:	69 c0 f5 72 00 00    	imul   $0x72f5,%eax,%eax
  40179a:	89 44 24 08          	mov    %eax,0x8(%rsp)
  40179e:	8b 44 24 14          	mov    0x14(%rsp),%eax
  4017a2:	69 c0 7a 10 00 00    	imul   $0x107a,%eax,%eax
  4017a8:	89 44 24 14          	mov    %eax,0x14(%rsp)
  4017ac:	8b 44 24 04          	mov    0x4(%rsp),%eax
  4017b0:	69 c0 ba c4 00 00    	imul   $0xc4ba,%eax,%eax
  4017b6:	89 44 24 04          	mov    %eax,0x4(%rsp)
  4017ba:	8b 44 24 20          	mov    0x20(%rsp),%eax
  4017be:	69 c0 17 d3 00 00    	imul   $0xd317,%eax,%eax
  4017c4:	89 44 24 20          	mov    %eax,0x20(%rsp)
  4017c8:	8b 44 24 04          	mov    0x4(%rsp),%eax
  4017cc:	69 c0 0f 8d 00 00    	imul   $0x8d0f,%eax,%eax
  4017d2:	89 44 24 04          	mov    %eax,0x4(%rsp)
  4017d6:	8b 44 24 0c          	mov    0xc(%rsp),%eax
  4017da:	69 c0 ed d0 00 00    	imul   $0xd0ed,%eax,%eax
  4017e0:	89 44 24 0c          	mov    %eax,0xc(%rsp)
  4017e4:	8b 44 24 24          	mov    0x24(%rsp),%eax
  4017e8:	69 c0 c2 dc 00 00    	imul   $0xdcc2,%eax,%eax
  4017ee:	89 44 24 24          	mov    %eax,0x24(%rsp)
  4017f2:	8b 44 24 08          	mov    0x8(%rsp),%eax
  4017f6:	69 c0 3a ec 00 00    	imul   $0xec3a,%eax,%eax
  4017fc:	89 44 24 08          	mov    %eax,0x8(%rsp)
  401800:	8b 04 24             	mov    (%rsp),%eax
  401803:	69 c0 da 8d 00 00    	imul   $0x8dda,%eax,%eax
  401809:	89 04 24             	mov    %eax,(%rsp)
  40180c:	8b 44 24 1c          	mov    0x1c(%rsp),%eax
  401810:	69 c0 01 0f 00 00    	imul   $0xf01,%eax,%eax
  401816:	89 44 24 1c          	mov    %eax,0x1c(%rsp)
  40181a:	ba 00 00 00 00       	mov    $0x0,%edx
  40181f:	b8 00 00 00 00       	mov    $0x0,%eax
  401824:	eb 0a                	jmp    401830 <scramble+0x4f1>
  401826:	89 d1                	mov    %edx,%ecx
  401828:	8b 0c 8c             	mov    (%rsp,%rcx,4),%ecx
  40182b:	01 c8                	add    %ecx,%eax
  40182d:	83 c2 01             	add    $0x1,%edx
  401830:	83 fa 09             	cmp    $0x9,%edx
  401833:	76 f1                	jbe    401826 <scramble+0x4e7>
  401835:	48 8b 74 24 28       	mov    0x28(%rsp),%rsi
  40183a:	64 48 33 34 25 28 00 	xor    %fs:0x28,%rsi
  401841:	00 00 
  401843:	75 05                	jne    40184a <scramble+0x50b>
  401845:	48 83 c4 38          	add    $0x38,%rsp
  401849:	c3                   	retq   
  40184a:	e8 91 f4 ff ff       	callq  400ce0 <__stack_chk_fail@plt>

000000000040184f <getbuf>:
  40184f:	48 83 ec 28          	sub    $0x28,%rsp
  401853:	48 89 e7             	mov    %rsp,%rdi
  401856:	e8 7e 02 00 00       	callq  401ad9 <Gets>
  40185b:	b8 01 00 00 00       	mov    $0x1,%eax
  401860:	48 83 c4 28          	add    $0x28,%rsp
  401864:	c3                   	retq   

0000000000401865 <touch1>:
  401865:	48 83 ec 08          	sub    $0x8,%rsp
  401869:	c7 05 89 2c 20 00 01 	movl   $0x1,0x202c89(%rip)        # 6044fc <vlevel>
  401870:	00 00 00 
  401873:	bf ca 31 40 00       	mov    $0x4031ca,%edi
  401878:	e8 43 f4 ff ff       	callq  400cc0 <puts@plt>
  40187d:	bf 01 00 00 00       	mov    $0x1,%edi
  401882:	e8 a7 04 00 00       	callq  401d2e <validate>
  401887:	bf 00 00 00 00       	mov    $0x0,%edi
  40188c:	e8 9f f5 ff ff       	callq  400e30 <exit@plt>

0000000000401891 <touch2>:
  401891:	48 83 ec 08          	sub    $0x8,%rsp
  401895:	89 fa                	mov    %edi,%edx
  401897:	c7 05 5b 2c 20 00 02 	movl   $0x2,0x202c5b(%rip)        # 6044fc <vlevel>
  40189e:	00 00 00 
  4018a1:	39 3d 5d 2c 20 00    	cmp    %edi,0x202c5d(%rip)        # 604504 <cookie>
  4018a7:	74 28                	je     4018d1 <touch2+0x40>
  4018a9:	be 18 32 40 00       	mov    $0x403218,%esi
  4018ae:	bf 01 00 00 00       	mov    $0x1,%edi
  4018b3:	b8 00 00 00 00       	mov    $0x0,%eax
  4018b8:	e8 23 f5 ff ff       	callq  400de0 <__printf_chk@plt>
  4018bd:	bf 02 00 00 00       	mov    $0x2,%edi
  4018c2:	e8 2c 05 00 00       	callq  401df3 <fail>
  4018c7:	bf 00 00 00 00       	mov    $0x0,%edi
  4018cc:	e8 5f f5 ff ff       	callq  400e30 <exit@plt>
  4018d1:	be f0 31 40 00       	mov    $0x4031f0,%esi
  4018d6:	bf 01 00 00 00       	mov    $0x1,%edi
  4018db:	b8 00 00 00 00       	mov    $0x0,%eax
  4018e0:	e8 fb f4 ff ff       	callq  400de0 <__printf_chk@plt>
  4018e5:	bf 02 00 00 00       	mov    $0x2,%edi
  4018ea:	e8 3f 04 00 00       	callq  401d2e <validate>
  4018ef:	eb d6                	jmp    4018c7 <touch2+0x36>

00000000004018f1 <hexmatch>:
  4018f1:	41 54                	push   %r12
  4018f3:	55                   	push   %rbp
  4018f4:	53                   	push   %rbx
  4018f5:	48 83 c4 80          	add    $0xffffffffffffff80,%rsp
  4018f9:	89 fd                	mov    %edi,%ebp
  4018fb:	48 89 f3             	mov    %rsi,%rbx
  4018fe:	64 48 8b 04 25 28 00 	mov    %fs:0x28,%rax
  401905:	00 00 
  401907:	48 89 44 24 78       	mov    %rax,0x78(%rsp)
  40190c:	31 c0                	xor    %eax,%eax
  40190e:	e8 8d f4 ff ff       	callq  400da0 <random@plt>
  401913:	48 89 c1             	mov    %rax,%rcx
  401916:	48 ba 0b d7 a3 70 3d 	movabs $0xa3d70a3d70a3d70b,%rdx
  40191d:	0a d7 a3 
  401920:	48 f7 ea             	imul   %rdx
  401923:	48 01 ca             	add    %rcx,%rdx
  401926:	48 c1 fa 06          	sar    $0x6,%rdx
  40192a:	48 89 c8             	mov    %rcx,%rax
  40192d:	48 c1 f8 3f          	sar    $0x3f,%rax
  401931:	48 29 c2             	sub    %rax,%rdx
  401934:	48 8d 04 92          	lea    (%rdx,%rdx,4),%rax
  401938:	48 8d 14 80          	lea    (%rax,%rax,4),%rdx
  40193c:	48 8d 04 95 00 00 00 	lea    0x0(,%rdx,4),%rax
  401943:	00 
  401944:	48 29 c1             	sub    %rax,%rcx
  401947:	4c 8d 24 0c          	lea    (%rsp,%rcx,1),%r12
  40194b:	41 89 e8             	mov    %ebp,%r8d
  40194e:	b9 e7 31 40 00       	mov    $0x4031e7,%ecx
  401953:	48 c7 c2 ff ff ff ff 	mov    $0xffffffffffffffff,%rdx
  40195a:	be 01 00 00 00       	mov    $0x1,%esi
  40195f:	4c 89 e7             	mov    %r12,%rdi
  401962:	b8 00 00 00 00       	mov    $0x0,%eax
  401967:	e8 f4 f4 ff ff       	callq  400e60 <__sprintf_chk@plt>
  40196c:	ba 09 00 00 00       	mov    $0x9,%edx
  401971:	4c 89 e6             	mov    %r12,%rsi
  401974:	48 89 df             	mov    %rbx,%rdi
  401977:	e8 24 f3 ff ff       	callq  400ca0 <strncmp@plt>
  40197c:	85 c0                	test   %eax,%eax
  40197e:	0f 94 c0             	sete   %al
  401981:	48 8b 5c 24 78       	mov    0x78(%rsp),%rbx
  401986:	64 48 33 1c 25 28 00 	xor    %fs:0x28,%rbx
  40198d:	00 00 
  40198f:	75 0c                	jne    40199d <hexmatch+0xac>
  401991:	0f b6 c0             	movzbl %al,%eax
  401994:	48 83 ec 80          	sub    $0xffffffffffffff80,%rsp
  401998:	5b                   	pop    %rbx
  401999:	5d                   	pop    %rbp
  40199a:	41 5c                	pop    %r12
  40199c:	c3                   	retq   
  40199d:	e8 3e f3 ff ff       	callq  400ce0 <__stack_chk_fail@plt>

00000000004019a2 <touch3>:
  4019a2:	53                   	push   %rbx
  4019a3:	48 89 fb             	mov    %rdi,%rbx
  4019a6:	c7 05 4c 2b 20 00 03 	movl   $0x3,0x202b4c(%rip)        # 6044fc <vlevel>
  4019ad:	00 00 00 
  4019b0:	48 89 fe             	mov    %rdi,%rsi
  4019b3:	8b 3d 4b 2b 20 00    	mov    0x202b4b(%rip),%edi        # 604504 <cookie>
  4019b9:	e8 33 ff ff ff       	callq  4018f1 <hexmatch>
  4019be:	85 c0                	test   %eax,%eax
  4019c0:	74 2b                	je     4019ed <touch3+0x4b>
  4019c2:	48 89 da             	mov    %rbx,%rdx
  4019c5:	be 40 32 40 00       	mov    $0x403240,%esi
  4019ca:	bf 01 00 00 00       	mov    $0x1,%edi
  4019cf:	b8 00 00 00 00       	mov    $0x0,%eax
  4019d4:	e8 07 f4 ff ff       	callq  400de0 <__printf_chk@plt>
  4019d9:	bf 03 00 00 00       	mov    $0x3,%edi
  4019de:	e8 4b 03 00 00       	callq  401d2e <validate>
  4019e3:	bf 00 00 00 00       	mov    $0x0,%edi
  4019e8:	e8 43 f4 ff ff       	callq  400e30 <exit@plt>
  4019ed:	48 89 da             	mov    %rbx,%rdx
  4019f0:	be 68 32 40 00       	mov    $0x403268,%esi
  4019f5:	bf 01 00 00 00       	mov    $0x1,%edi
  4019fa:	b8 00 00 00 00       	mov    $0x0,%eax
  4019ff:	e8 dc f3 ff ff       	callq  400de0 <__printf_chk@plt>
  401a04:	bf 03 00 00 00       	mov    $0x3,%edi
  401a09:	e8 e5 03 00 00       	callq  401df3 <fail>
  401a0e:	eb d3                	jmp    4019e3 <touch3+0x41>

0000000000401a10 <test>:
  401a10:	48 83 ec 08          	sub    $0x8,%rsp
  401a14:	b8 00 00 00 00       	mov    $0x0,%eax
  401a19:	e8 31 fe ff ff       	callq  40184f <getbuf>
  401a1e:	89 c2                	mov    %eax,%edx
  401a20:	be 90 32 40 00       	mov    $0x403290,%esi
  401a25:	bf 01 00 00 00       	mov    $0x1,%edi
  401a2a:	b8 00 00 00 00       	mov    $0x0,%eax
  401a2f:	e8 ac f3 ff ff       	callq  400de0 <__printf_chk@plt>
  401a34:	48 83 c4 08          	add    $0x8,%rsp
  401a38:	c3                   	retq   

0000000000401a39 <save_char>:
  401a39:	8b 05 e5 36 20 00    	mov    0x2036e5(%rip),%eax        # 605124 <gets_cnt>
  401a3f:	3d ff 03 00 00       	cmp    $0x3ff,%eax
  401a44:	7f 49                	jg     401a8f <save_char+0x56>
  401a46:	89 f9                	mov    %edi,%ecx
  401a48:	c0 e9 04             	shr    $0x4,%cl
  401a4b:	8d 14 40             	lea    (%rax,%rax,2),%edx
  401a4e:	83 e1 0f             	and    $0xf,%ecx
  401a51:	0f b6 b1 b0 35 40 00 	movzbl 0x4035b0(%rcx),%esi
  401a58:	48 63 ca             	movslq %edx,%rcx
  401a5b:	40 88 b1 20 45 60 00 	mov    %sil,0x604520(%rcx)
  401a62:	8d 4a 01             	lea    0x1(%rdx),%ecx
  401a65:	83 e7 0f             	and    $0xf,%edi
  401a68:	0f b6 b7 b0 35 40 00 	movzbl 0x4035b0(%rdi),%esi
  401a6f:	48 63 c9             	movslq %ecx,%rcx
  401a72:	40 88 b1 20 45 60 00 	mov    %sil,0x604520(%rcx)
  401a79:	83 c2 02             	add    $0x2,%edx
  401a7c:	48 63 d2             	movslq %edx,%rdx
  401a7f:	c6 82 20 45 60 00 20 	movb   $0x20,0x604520(%rdx)
  401a86:	83 c0 01             	add    $0x1,%eax
  401a89:	89 05 95 36 20 00    	mov    %eax,0x203695(%rip)        # 605124 <gets_cnt>
  401a8f:	f3 c3                	repz retq 

0000000000401a91 <save_term>:
  401a91:	8b 05 8d 36 20 00    	mov    0x20368d(%rip),%eax        # 605124 <gets_cnt>
  401a97:	8d 04 40             	lea    (%rax,%rax,2),%eax
  401a9a:	48 98                	cltq   
  401a9c:	c6 80 20 45 60 00 00 	movb   $0x0,0x604520(%rax)
  401aa3:	c3                   	retq   

0000000000401aa4 <check_fail>:
  401aa4:	48 83 ec 08          	sub    $0x8,%rsp
  401aa8:	0f be 15 79 36 20 00 	movsbl 0x203679(%rip),%edx        # 605128 <target_prefix>
  401aaf:	41 b8 20 45 60 00    	mov    $0x604520,%r8d
  401ab5:	8b 0d 3d 2a 20 00    	mov    0x202a3d(%rip),%ecx        # 6044f8 <check_level>
  401abb:	be b3 32 40 00       	mov    $0x4032b3,%esi
  401ac0:	bf 01 00 00 00       	mov    $0x1,%edi
  401ac5:	b8 00 00 00 00       	mov    $0x0,%eax
  401aca:	e8 11 f3 ff ff       	callq  400de0 <__printf_chk@plt>
  401acf:	bf 01 00 00 00       	mov    $0x1,%edi
  401ad4:	e8 57 f3 ff ff       	callq  400e30 <exit@plt>

0000000000401ad9 <Gets>:
  401ad9:	41 54                	push   %r12
  401adb:	55                   	push   %rbp
  401adc:	53                   	push   %rbx
  401add:	49 89 fc             	mov    %rdi,%r12
  401ae0:	c7 05 3a 36 20 00 00 	movl   $0x0,0x20363a(%rip)        # 605124 <gets_cnt>
  401ae7:	00 00 00 
  401aea:	48 89 fb             	mov    %rdi,%rbx
  401aed:	eb 11                	jmp    401b00 <Gets+0x27>
  401aef:	48 8d 6b 01          	lea    0x1(%rbx),%rbp
  401af3:	88 03                	mov    %al,(%rbx)
  401af5:	0f b6 f8             	movzbl %al,%edi
  401af8:	e8 3c ff ff ff       	callq  401a39 <save_char>
  401afd:	48 89 eb             	mov    %rbp,%rbx
  401b00:	48 8b 3d e9 29 20 00 	mov    0x2029e9(%rip),%rdi        # 6044f0 <infile>
  401b07:	e8 a4 f2 ff ff       	callq  400db0 <_IO_getc@plt>
  401b0c:	83 f8 ff             	cmp    $0xffffffff,%eax
  401b0f:	74 05                	je     401b16 <Gets+0x3d>
  401b11:	83 f8 0a             	cmp    $0xa,%eax
  401b14:	75 d9                	jne    401aef <Gets+0x16>
  401b16:	c6 03 00             	movb   $0x0,(%rbx)
  401b19:	b8 00 00 00 00       	mov    $0x0,%eax
  401b1e:	e8 6e ff ff ff       	callq  401a91 <save_term>
  401b23:	4c 89 e0             	mov    %r12,%rax
  401b26:	5b                   	pop    %rbx
  401b27:	5d                   	pop    %rbp
  401b28:	41 5c                	pop    %r12
  401b2a:	c3                   	retq   

0000000000401b2b <notify_server>:
  401b2b:	55                   	push   %rbp
  401b2c:	53                   	push   %rbx
  401b2d:	48 81 ec 18 40 00 00 	sub    $0x4018,%rsp
  401b34:	64 48 8b 04 25 28 00 	mov    %fs:0x28,%rax
  401b3b:	00 00 
  401b3d:	48 89 84 24 08 40 00 	mov    %rax,0x4008(%rsp)
  401b44:	00 
  401b45:	31 c0                	xor    %eax,%eax
  401b47:	83 3d ba 29 20 00 00 	cmpl   $0x0,0x2029ba(%rip)        # 604508 <is_checker>
  401b4e:	0f 85 c9 00 00 00    	jne    401c1d <notify_server+0xf2>
  401b54:	89 fb                	mov    %edi,%ebx
  401b56:	8b 05 c8 35 20 00    	mov    0x2035c8(%rip),%eax        # 605124 <gets_cnt>
  401b5c:	83 c0 64             	add    $0x64,%eax
  401b5f:	3d 00 20 00 00       	cmp    $0x2000,%eax
  401b64:	0f 8f d4 00 00 00    	jg     401c3e <notify_server+0x113>
  401b6a:	0f be 05 b7 35 20 00 	movsbl 0x2035b7(%rip),%eax        # 605128 <target_prefix>
  401b71:	83 3d 10 29 20 00 00 	cmpl   $0x0,0x202910(%rip)        # 604488 <notify>
  401b78:	0f 84 de 00 00 00    	je     401c5c <notify_server+0x131>
  401b7e:	8b 15 7c 29 20 00    	mov    0x20297c(%rip),%edx        # 604500 <authkey>
  401b84:	85 db                	test   %ebx,%ebx
  401b86:	0f 84 da 00 00 00    	je     401c66 <notify_server+0x13b>
  401b8c:	bd c9 32 40 00       	mov    $0x4032c9,%ebp
  401b91:	68 20 45 60 00       	pushq  $0x604520
  401b96:	56                   	push   %rsi
  401b97:	50                   	push   %rax
  401b98:	52                   	push   %rdx
  401b99:	49 89 e9             	mov    %rbp,%r9
  401b9c:	44 8b 05 a5 25 20 00 	mov    0x2025a5(%rip),%r8d        # 604148 <target_id>
  401ba3:	b9 d3 32 40 00       	mov    $0x4032d3,%ecx
  401ba8:	ba 00 20 00 00       	mov    $0x2000,%edx
  401bad:	be 01 00 00 00       	mov    $0x1,%esi
  401bb2:	48 8d 7c 24 20       	lea    0x20(%rsp),%rdi
  401bb7:	b8 00 00 00 00       	mov    $0x0,%eax
  401bbc:	e8 9f f2 ff ff       	callq  400e60 <__sprintf_chk@plt>
  401bc1:	48 83 c4 20          	add    $0x20,%rsp
  401bc5:	83 3d bc 28 20 00 00 	cmpl   $0x0,0x2028bc(%rip)        # 604488 <notify>
  401bcc:	0f 84 d3 00 00 00    	je     401ca5 <notify_server+0x17a>
  401bd2:	85 db                	test   %ebx,%ebx
  401bd4:	0f 84 bc 00 00 00    	je     401c96 <notify_server+0x16b>
  401bda:	4c 8d 8c 24 00 20 00 	lea    0x2000(%rsp),%r9
  401be1:	00 
  401be2:	41 b8 00 00 00 00    	mov    $0x0,%r8d
  401be8:	48 89 e1             	mov    %rsp,%rcx
  401beb:	48 8b 15 5e 25 20 00 	mov    0x20255e(%rip),%rdx        # 604150 <lab>
  401bf2:	48 8b 35 5f 25 20 00 	mov    0x20255f(%rip),%rsi        # 604158 <course>
  401bf9:	48 8b 3d 40 25 20 00 	mov    0x202540(%rip),%rdi        # 604140 <user_id>
  401c00:	e8 31 11 00 00       	callq  402d36 <driver_post>
  401c05:	85 c0                	test   %eax,%eax
  401c07:	78 67                	js     401c70 <notify_server+0x145>
  401c09:	bf 18 34 40 00       	mov    $0x403418,%edi
  401c0e:	e8 ad f0 ff ff       	callq  400cc0 <puts@plt>
  401c13:	bf fb 32 40 00       	mov    $0x4032fb,%edi
  401c18:	e8 a3 f0 ff ff       	callq  400cc0 <puts@plt>
  401c1d:	48 8b 84 24 08 40 00 	mov    0x4008(%rsp),%rax
  401c24:	00 
  401c25:	64 48 33 04 25 28 00 	xor    %fs:0x28,%rax
  401c2c:	00 00 
  401c2e:	0f 85 f5 00 00 00    	jne    401d29 <notify_server+0x1fe>
  401c34:	48 81 c4 18 40 00 00 	add    $0x4018,%rsp
  401c3b:	5b                   	pop    %rbx
  401c3c:	5d                   	pop    %rbp
  401c3d:	c3                   	retq   
  401c3e:	be e8 33 40 00       	mov    $0x4033e8,%esi
  401c43:	bf 01 00 00 00       	mov    $0x1,%edi
  401c48:	b8 00 00 00 00       	mov    $0x0,%eax
  401c4d:	e8 8e f1 ff ff       	callq  400de0 <__printf_chk@plt>
  401c52:	bf 01 00 00 00       	mov    $0x1,%edi
  401c57:	e8 d4 f1 ff ff       	callq  400e30 <exit@plt>
  401c5c:	ba ff ff ff ff       	mov    $0xffffffff,%edx
  401c61:	e9 1e ff ff ff       	jmpq   401b84 <notify_server+0x59>
  401c66:	bd ce 32 40 00       	mov    $0x4032ce,%ebp
  401c6b:	e9 21 ff ff ff       	jmpq   401b91 <notify_server+0x66>
  401c70:	48 8d 94 24 00 20 00 	lea    0x2000(%rsp),%rdx
  401c77:	00 
  401c78:	be ef 32 40 00       	mov    $0x4032ef,%esi
  401c7d:	bf 01 00 00 00       	mov    $0x1,%edi
  401c82:	b8 00 00 00 00       	mov    $0x0,%eax
  401c87:	e8 54 f1 ff ff       	callq  400de0 <__printf_chk@plt>
  401c8c:	bf 01 00 00 00       	mov    $0x1,%edi
  401c91:	e8 9a f1 ff ff       	callq  400e30 <exit@plt>
  401c96:	bf 05 33 40 00       	mov    $0x403305,%edi
  401c9b:	e8 20 f0 ff ff       	callq  400cc0 <puts@plt>
  401ca0:	e9 78 ff ff ff       	jmpq   401c1d <notify_server+0xf2>
  401ca5:	48 89 ea             	mov    %rbp,%rdx
  401ca8:	be 50 34 40 00       	mov    $0x403450,%esi
  401cad:	bf 01 00 00 00       	mov    $0x1,%edi
  401cb2:	b8 00 00 00 00       	mov    $0x0,%eax
  401cb7:	e8 24 f1 ff ff       	callq  400de0 <__printf_chk@plt>
  401cbc:	48 8b 15 7d 24 20 00 	mov    0x20247d(%rip),%rdx        # 604140 <user_id>
  401cc3:	be 0c 33 40 00       	mov    $0x40330c,%esi
  401cc8:	bf 01 00 00 00       	mov    $0x1,%edi
  401ccd:	b8 00 00 00 00       	mov    $0x0,%eax
  401cd2:	e8 09 f1 ff ff       	callq  400de0 <__printf_chk@plt>
  401cd7:	48 8b 15 7a 24 20 00 	mov    0x20247a(%rip),%rdx        # 604158 <course>
  401cde:	be 19 33 40 00       	mov    $0x403319,%esi
  401ce3:	bf 01 00 00 00       	mov    $0x1,%edi
  401ce8:	b8 00 00 00 00       	mov    $0x0,%eax
  401ced:	e8 ee f0 ff ff       	callq  400de0 <__printf_chk@plt>
  401cf2:	48 8b 15 57 24 20 00 	mov    0x202457(%rip),%rdx        # 604150 <lab>
  401cf9:	be 25 33 40 00       	mov    $0x403325,%esi
  401cfe:	bf 01 00 00 00       	mov    $0x1,%edi
  401d03:	b8 00 00 00 00       	mov    $0x0,%eax
  401d08:	e8 d3 f0 ff ff       	callq  400de0 <__printf_chk@plt>
  401d0d:	48 89 e2             	mov    %rsp,%rdx
  401d10:	be 2e 33 40 00       	mov    $0x40332e,%esi
  401d15:	bf 01 00 00 00       	mov    $0x1,%edi
  401d1a:	b8 00 00 00 00       	mov    $0x0,%eax
  401d1f:	e8 bc f0 ff ff       	callq  400de0 <__printf_chk@plt>
  401d24:	e9 f4 fe ff ff       	jmpq   401c1d <notify_server+0xf2>
  401d29:	e8 b2 ef ff ff       	callq  400ce0 <__stack_chk_fail@plt>

0000000000401d2e <validate>:
  401d2e:	53                   	push   %rbx
  401d2f:	89 fb                	mov    %edi,%ebx
  401d31:	83 3d d0 27 20 00 00 	cmpl   $0x0,0x2027d0(%rip)        # 604508 <is_checker>
  401d38:	74 6b                	je     401da5 <validate+0x77>
  401d3a:	39 3d bc 27 20 00    	cmp    %edi,0x2027bc(%rip)        # 6044fc <vlevel>
  401d40:	75 2f                	jne    401d71 <validate+0x43>
  401d42:	8b 15 b0 27 20 00    	mov    0x2027b0(%rip),%edx        # 6044f8 <check_level>
  401d48:	39 fa                	cmp    %edi,%edx
  401d4a:	75 39                	jne    401d85 <validate+0x57>
  401d4c:	0f be 15 d5 33 20 00 	movsbl 0x2033d5(%rip),%edx        # 605128 <target_prefix>
  401d53:	41 b8 20 45 60 00    	mov    $0x604520,%r8d
  401d59:	89 f9                	mov    %edi,%ecx
  401d5b:	be 58 33 40 00       	mov    $0x403358,%esi
  401d60:	bf 01 00 00 00       	mov    $0x1,%edi
  401d65:	b8 00 00 00 00       	mov    $0x0,%eax
  401d6a:	e8 71 f0 ff ff       	callq  400de0 <__printf_chk@plt>
  401d6f:	5b                   	pop    %rbx
  401d70:	c3                   	retq   
  401d71:	bf 3a 33 40 00       	mov    $0x40333a,%edi
  401d76:	e8 45 ef ff ff       	callq  400cc0 <puts@plt>
  401d7b:	b8 00 00 00 00       	mov    $0x0,%eax
  401d80:	e8 1f fd ff ff       	callq  401aa4 <check_fail>
  401d85:	89 f9                	mov    %edi,%ecx
  401d87:	be 78 34 40 00       	mov    $0x403478,%esi
  401d8c:	bf 01 00 00 00       	mov    $0x1,%edi
  401d91:	b8 00 00 00 00       	mov    $0x0,%eax
  401d96:	e8 45 f0 ff ff       	callq  400de0 <__printf_chk@plt>
  401d9b:	b8 00 00 00 00       	mov    $0x0,%eax
  401da0:	e8 ff fc ff ff       	callq  401aa4 <check_fail>
  401da5:	39 3d 51 27 20 00    	cmp    %edi,0x202751(%rip)        # 6044fc <vlevel>
  401dab:	74 18                	je     401dc5 <validate+0x97>
  401dad:	bf 3a 33 40 00       	mov    $0x40333a,%edi
  401db2:	e8 09 ef ff ff       	callq  400cc0 <puts@plt>
  401db7:	89 de                	mov    %ebx,%esi
  401db9:	bf 00 00 00 00       	mov    $0x0,%edi
  401dbe:	e8 68 fd ff ff       	callq  401b2b <notify_server>
  401dc3:	eb aa                	jmp    401d6f <validate+0x41>
  401dc5:	0f be 0d 5c 33 20 00 	movsbl 0x20335c(%rip),%ecx        # 605128 <target_prefix>
  401dcc:	89 fa                	mov    %edi,%edx
  401dce:	be a0 34 40 00       	mov    $0x4034a0,%esi
  401dd3:	bf 01 00 00 00       	mov    $0x1,%edi
  401dd8:	b8 00 00 00 00       	mov    $0x0,%eax
  401ddd:	e8 fe ef ff ff       	callq  400de0 <__printf_chk@plt>
  401de2:	89 de                	mov    %ebx,%esi
  401de4:	bf 01 00 00 00       	mov    $0x1,%edi
  401de9:	e8 3d fd ff ff       	callq  401b2b <notify_server>
  401dee:	e9 7c ff ff ff       	jmpq   401d6f <validate+0x41>

0000000000401df3 <fail>:
  401df3:	48 83 ec 08          	sub    $0x8,%rsp
  401df7:	83 3d 0a 27 20 00 00 	cmpl   $0x0,0x20270a(%rip)        # 604508 <is_checker>
  401dfe:	75 11                	jne    401e11 <fail+0x1e>
  401e00:	89 fe                	mov    %edi,%esi
  401e02:	bf 00 00 00 00       	mov    $0x0,%edi
  401e07:	e8 1f fd ff ff       	callq  401b2b <notify_server>
  401e0c:	48 83 c4 08          	add    $0x8,%rsp
  401e10:	c3                   	retq   
  401e11:	b8 00 00 00 00       	mov    $0x0,%eax
  401e16:	e8 89 fc ff ff       	callq  401aa4 <check_fail>

0000000000401e1b <bushandler>:
  401e1b:	48 83 ec 08          	sub    $0x8,%rsp
  401e1f:	83 3d e2 26 20 00 00 	cmpl   $0x0,0x2026e2(%rip)        # 604508 <is_checker>
  401e26:	74 14                	je     401e3c <bushandler+0x21>
  401e28:	bf 6d 33 40 00       	mov    $0x40336d,%edi
  401e2d:	e8 8e ee ff ff       	callq  400cc0 <puts@plt>
  401e32:	b8 00 00 00 00       	mov    $0x0,%eax
  401e37:	e8 68 fc ff ff       	callq  401aa4 <check_fail>
  401e3c:	bf d8 34 40 00       	mov    $0x4034d8,%edi
  401e41:	e8 7a ee ff ff       	callq  400cc0 <puts@plt>
  401e46:	bf 77 33 40 00       	mov    $0x403377,%edi
  401e4b:	e8 70 ee ff ff       	callq  400cc0 <puts@plt>
  401e50:	be 00 00 00 00       	mov    $0x0,%esi
  401e55:	bf 00 00 00 00       	mov    $0x0,%edi
  401e5a:	e8 cc fc ff ff       	callq  401b2b <notify_server>
  401e5f:	bf 01 00 00 00       	mov    $0x1,%edi
  401e64:	e8 c7 ef ff ff       	callq  400e30 <exit@plt>

0000000000401e69 <seghandler>:
  401e69:	48 83 ec 08          	sub    $0x8,%rsp
  401e6d:	83 3d 94 26 20 00 00 	cmpl   $0x0,0x202694(%rip)        # 604508 <is_checker>
  401e74:	74 14                	je     401e8a <seghandler+0x21>
  401e76:	bf 8d 33 40 00       	mov    $0x40338d,%edi
  401e7b:	e8 40 ee ff ff       	callq  400cc0 <puts@plt>
  401e80:	b8 00 00 00 00       	mov    $0x0,%eax
  401e85:	e8 1a fc ff ff       	callq  401aa4 <check_fail>
  401e8a:	bf f8 34 40 00       	mov    $0x4034f8,%edi
  401e8f:	e8 2c ee ff ff       	callq  400cc0 <puts@plt>
  401e94:	bf 77 33 40 00       	mov    $0x403377,%edi
  401e99:	e8 22 ee ff ff       	callq  400cc0 <puts@plt>
  401e9e:	be 00 00 00 00       	mov    $0x0,%esi
  401ea3:	bf 00 00 00 00       	mov    $0x0,%edi
  401ea8:	e8 7e fc ff ff       	callq  401b2b <notify_server>
  401ead:	bf 01 00 00 00       	mov    $0x1,%edi
  401eb2:	e8 79 ef ff ff       	callq  400e30 <exit@plt>

0000000000401eb7 <illegalhandler>:
  401eb7:	48 83 ec 08          	sub    $0x8,%rsp
  401ebb:	83 3d 46 26 20 00 00 	cmpl   $0x0,0x202646(%rip)        # 604508 <is_checker>
  401ec2:	74 14                	je     401ed8 <illegalhandler+0x21>
  401ec4:	bf a0 33 40 00       	mov    $0x4033a0,%edi
  401ec9:	e8 f2 ed ff ff       	callq  400cc0 <puts@plt>
  401ece:	b8 00 00 00 00       	mov    $0x0,%eax
  401ed3:	e8 cc fb ff ff       	callq  401aa4 <check_fail>
  401ed8:	bf 20 35 40 00       	mov    $0x403520,%edi
  401edd:	e8 de ed ff ff       	callq  400cc0 <puts@plt>
  401ee2:	bf 77 33 40 00       	mov    $0x403377,%edi
  401ee7:	e8 d4 ed ff ff       	callq  400cc0 <puts@plt>
  401eec:	be 00 00 00 00       	mov    $0x0,%esi
  401ef1:	bf 00 00 00 00       	mov    $0x0,%edi
  401ef6:	e8 30 fc ff ff       	callq  401b2b <notify_server>
  401efb:	bf 01 00 00 00       	mov    $0x1,%edi
  401f00:	e8 2b ef ff ff       	callq  400e30 <exit@plt>

0000000000401f05 <sigalrmhandler>:
  401f05:	48 83 ec 08          	sub    $0x8,%rsp
  401f09:	83 3d f8 25 20 00 00 	cmpl   $0x0,0x2025f8(%rip)        # 604508 <is_checker>
  401f10:	74 14                	je     401f26 <sigalrmhandler+0x21>
  401f12:	bf b4 33 40 00       	mov    $0x4033b4,%edi
  401f17:	e8 a4 ed ff ff       	callq  400cc0 <puts@plt>
  401f1c:	b8 00 00 00 00       	mov    $0x0,%eax
  401f21:	e8 7e fb ff ff       	callq  401aa4 <check_fail>
  401f26:	ba 05 00 00 00       	mov    $0x5,%edx
  401f2b:	be 50 35 40 00       	mov    $0x403550,%esi
  401f30:	bf 01 00 00 00       	mov    $0x1,%edi
  401f35:	b8 00 00 00 00       	mov    $0x0,%eax
  401f3a:	e8 a1 ee ff ff       	callq  400de0 <__printf_chk@plt>
  401f3f:	be 00 00 00 00       	mov    $0x0,%esi
  401f44:	bf 00 00 00 00       	mov    $0x0,%edi
  401f49:	e8 dd fb ff ff       	callq  401b2b <notify_server>
  401f4e:	bf 01 00 00 00       	mov    $0x1,%edi
  401f53:	e8 d8 ee ff ff       	callq  400e30 <exit@plt>

0000000000401f58 <launch>:
  401f58:	55                   	push   %rbp
  401f59:	48 89 e5             	mov    %rsp,%rbp
  401f5c:	48 83 ec 10          	sub    $0x10,%rsp
  401f60:	48 89 fa             	mov    %rdi,%rdx
  401f63:	64 48 8b 04 25 28 00 	mov    %fs:0x28,%rax
  401f6a:	00 00 
  401f6c:	48 89 45 f8          	mov    %rax,-0x8(%rbp)
  401f70:	31 c0                	xor    %eax,%eax
  401f72:	48 8d 47 1e          	lea    0x1e(%rdi),%rax
  401f76:	48 83 e0 f0          	and    $0xfffffffffffffff0,%rax
  401f7a:	48 29 c4             	sub    %rax,%rsp
  401f7d:	48 8d 7c 24 0f       	lea    0xf(%rsp),%rdi
  401f82:	48 83 e7 f0          	and    $0xfffffffffffffff0,%rdi
  401f86:	be f4 00 00 00       	mov    $0xf4,%esi
  401f8b:	e8 70 ed ff ff       	callq  400d00 <memset@plt>
  401f90:	48 8b 05 09 25 20 00 	mov    0x202509(%rip),%rax        # 6044a0 <stdin@@GLIBC_2.2.5>
  401f97:	48 39 05 52 25 20 00 	cmp    %rax,0x202552(%rip)        # 6044f0 <infile>
  401f9e:	74 38                	je     401fd8 <launch+0x80>
  401fa0:	c7 05 52 25 20 00 00 	movl   $0x0,0x202552(%rip)        # 6044fc <vlevel>
  401fa7:	00 00 00 
  401faa:	b8 00 00 00 00       	mov    $0x0,%eax
  401faf:	e8 5c fa ff ff       	callq  401a10 <test>
  401fb4:	83 3d 4d 25 20 00 00 	cmpl   $0x0,0x20254d(%rip)        # 604508 <is_checker>
  401fbb:	75 31                	jne    401fee <launch+0x96>
  401fbd:	bf d4 33 40 00       	mov    $0x4033d4,%edi
  401fc2:	e8 f9 ec ff ff       	callq  400cc0 <puts@plt>
  401fc7:	48 8b 45 f8          	mov    -0x8(%rbp),%rax
  401fcb:	64 48 33 04 25 28 00 	xor    %fs:0x28,%rax
  401fd2:	00 00 
  401fd4:	75 2c                	jne    402002 <launch+0xaa>
  401fd6:	c9                   	leaveq 
  401fd7:	c3                   	retq   
  401fd8:	be bc 33 40 00       	mov    $0x4033bc,%esi
  401fdd:	bf 01 00 00 00       	mov    $0x1,%edi
  401fe2:	b8 00 00 00 00       	mov    $0x0,%eax
  401fe7:	e8 f4 ed ff ff       	callq  400de0 <__printf_chk@plt>
  401fec:	eb b2                	jmp    401fa0 <launch+0x48>
  401fee:	bf c9 33 40 00       	mov    $0x4033c9,%edi
  401ff3:	e8 c8 ec ff ff       	callq  400cc0 <puts@plt>
  401ff8:	b8 00 00 00 00       	mov    $0x0,%eax
  401ffd:	e8 a2 fa ff ff       	callq  401aa4 <check_fail>
  402002:	e8 d9 ec ff ff       	callq  400ce0 <__stack_chk_fail@plt>

0000000000402007 <stable_launch>:
  402007:	53                   	push   %rbx
  402008:	48 89 3d d9 24 20 00 	mov    %rdi,0x2024d9(%rip)        # 6044e8 <global_offset>
  40200f:	41 b9 00 00 00 00    	mov    $0x0,%r9d
  402015:	41 b8 00 00 00 00    	mov    $0x0,%r8d
  40201b:	b9 32 01 00 00       	mov    $0x132,%ecx
  402020:	ba 07 00 00 00       	mov    $0x7,%edx
  402025:	be 00 00 10 00       	mov    $0x100000,%esi
  40202a:	bf 00 60 58 55       	mov    $0x55586000,%edi
  40202f:	e8 bc ec ff ff       	callq  400cf0 <mmap@plt>
  402034:	48 89 c3             	mov    %rax,%rbx
  402037:	48 3d 00 60 58 55    	cmp    $0x55586000,%rax
  40203d:	75 43                	jne    402082 <stable_launch+0x7b>
  40203f:	48 8d 90 f8 ff 0f 00 	lea    0xffff8(%rax),%rdx
  402046:	48 89 15 e3 30 20 00 	mov    %rdx,0x2030e3(%rip)        # 605130 <stack_top>
  40204d:	48 89 e0             	mov    %rsp,%rax
  402050:	48 89 d4             	mov    %rdx,%rsp
  402053:	48 89 c2             	mov    %rax,%rdx
  402056:	48 89 15 83 24 20 00 	mov    %rdx,0x202483(%rip)        # 6044e0 <global_save_stack>
  40205d:	48 8b 3d 84 24 20 00 	mov    0x202484(%rip),%rdi        # 6044e8 <global_offset>
  402064:	e8 ef fe ff ff       	callq  401f58 <launch>
  402069:	48 8b 05 70 24 20 00 	mov    0x202470(%rip),%rax        # 6044e0 <global_save_stack>
  402070:	48 89 c4             	mov    %rax,%rsp
  402073:	be 00 00 10 00       	mov    $0x100000,%esi
  402078:	48 89 df             	mov    %rbx,%rdi
  40207b:	e8 50 ed ff ff       	callq  400dd0 <munmap@plt>
  402080:	5b                   	pop    %rbx
  402081:	c3                   	retq   
  402082:	be 00 00 10 00       	mov    $0x100000,%esi
  402087:	48 89 c7             	mov    %rax,%rdi
  40208a:	e8 41 ed ff ff       	callq  400dd0 <munmap@plt>
  40208f:	b9 00 60 58 55       	mov    $0x55586000,%ecx
  402094:	ba 88 35 40 00       	mov    $0x403588,%edx
  402099:	be 01 00 00 00       	mov    $0x1,%esi
  40209e:	48 8b 3d 1b 24 20 00 	mov    0x20241b(%rip),%rdi        # 6044c0 <stderr@@GLIBC_2.2.5>
  4020a5:	b8 00 00 00 00       	mov    $0x0,%eax
  4020aa:	e8 a1 ed ff ff       	callq  400e50 <__fprintf_chk@plt>
  4020af:	bf 01 00 00 00       	mov    $0x1,%edi
  4020b4:	e8 77 ed ff ff       	callq  400e30 <exit@plt>

00000000004020b9 <rio_readinitb>:
  4020b9:	89 37                	mov    %esi,(%rdi)
  4020bb:	c7 47 04 00 00 00 00 	movl   $0x0,0x4(%rdi)
  4020c2:	48 8d 47 10          	lea    0x10(%rdi),%rax
  4020c6:	48 89 47 08          	mov    %rax,0x8(%rdi)
  4020ca:	c3                   	retq   

00000000004020cb <sigalrm_handler>:
  4020cb:	48 83 ec 08          	sub    $0x8,%rsp
  4020cf:	b9 00 00 00 00       	mov    $0x0,%ecx
  4020d4:	ba c0 35 40 00       	mov    $0x4035c0,%edx
  4020d9:	be 01 00 00 00       	mov    $0x1,%esi
  4020de:	48 8b 3d db 23 20 00 	mov    0x2023db(%rip),%rdi        # 6044c0 <stderr@@GLIBC_2.2.5>
  4020e5:	b8 00 00 00 00       	mov    $0x0,%eax
  4020ea:	e8 61 ed ff ff       	callq  400e50 <__fprintf_chk@plt>
  4020ef:	bf 01 00 00 00       	mov    $0x1,%edi
  4020f4:	e8 37 ed ff ff       	callq  400e30 <exit@plt>

00000000004020f9 <rio_writen>:
  4020f9:	41 55                	push   %r13
  4020fb:	41 54                	push   %r12
  4020fd:	55                   	push   %rbp
  4020fe:	53                   	push   %rbx
  4020ff:	48 83 ec 08          	sub    $0x8,%rsp
  402103:	41 89 fc             	mov    %edi,%r12d
  402106:	48 89 f5             	mov    %rsi,%rbp
  402109:	49 89 d5             	mov    %rdx,%r13
  40210c:	48 89 d3             	mov    %rdx,%rbx
  40210f:	eb 06                	jmp    402117 <rio_writen+0x1e>
  402111:	48 29 c3             	sub    %rax,%rbx
  402114:	48 01 c5             	add    %rax,%rbp
  402117:	48 85 db             	test   %rbx,%rbx
  40211a:	74 24                	je     402140 <rio_writen+0x47>
  40211c:	48 89 da             	mov    %rbx,%rdx
  40211f:	48 89 ee             	mov    %rbp,%rsi
  402122:	44 89 e7             	mov    %r12d,%edi
  402125:	e8 a6 eb ff ff       	callq  400cd0 <write@plt>
  40212a:	48 85 c0             	test   %rax,%rax
  40212d:	7f e2                	jg     402111 <rio_writen+0x18>
  40212f:	e8 4c eb ff ff       	callq  400c80 <__errno_location@plt>
  402134:	83 38 04             	cmpl   $0x4,(%rax)
  402137:	75 15                	jne    40214e <rio_writen+0x55>
  402139:	b8 00 00 00 00       	mov    $0x0,%eax
  40213e:	eb d1                	jmp    402111 <rio_writen+0x18>
  402140:	4c 89 e8             	mov    %r13,%rax
  402143:	48 83 c4 08          	add    $0x8,%rsp
  402147:	5b                   	pop    %rbx
  402148:	5d                   	pop    %rbp
  402149:	41 5c                	pop    %r12
  40214b:	41 5d                	pop    %r13
  40214d:	c3                   	retq   
  40214e:	48 c7 c0 ff ff ff ff 	mov    $0xffffffffffffffff,%rax
  402155:	eb ec                	jmp    402143 <rio_writen+0x4a>

0000000000402157 <rio_read>:
  402157:	41 55                	push   %r13
  402159:	41 54                	push   %r12
  40215b:	55                   	push   %rbp
  40215c:	53                   	push   %rbx
  40215d:	48 83 ec 08          	sub    $0x8,%rsp
  402161:	48 89 fb             	mov    %rdi,%rbx
  402164:	49 89 f5             	mov    %rsi,%r13
  402167:	49 89 d4             	mov    %rdx,%r12
  40216a:	eb 0a                	jmp    402176 <rio_read+0x1f>
  40216c:	e8 0f eb ff ff       	callq  400c80 <__errno_location@plt>
  402171:	83 38 04             	cmpl   $0x4,(%rax)
  402174:	75 5c                	jne    4021d2 <rio_read+0x7b>
  402176:	8b 6b 04             	mov    0x4(%rbx),%ebp
  402179:	85 ed                	test   %ebp,%ebp
  40217b:	7f 24                	jg     4021a1 <rio_read+0x4a>
  40217d:	48 8d 6b 10          	lea    0x10(%rbx),%rbp
  402181:	8b 3b                	mov    (%rbx),%edi
  402183:	ba 00 20 00 00       	mov    $0x2000,%edx
  402188:	48 89 ee             	mov    %rbp,%rsi
  40218b:	e8 a0 eb ff ff       	callq  400d30 <read@plt>
  402190:	89 43 04             	mov    %eax,0x4(%rbx)
  402193:	85 c0                	test   %eax,%eax
  402195:	78 d5                	js     40216c <rio_read+0x15>
  402197:	85 c0                	test   %eax,%eax
  402199:	74 40                	je     4021db <rio_read+0x84>
  40219b:	48 89 6b 08          	mov    %rbp,0x8(%rbx)
  40219f:	eb d5                	jmp    402176 <rio_read+0x1f>
  4021a1:	89 e8                	mov    %ebp,%eax
  4021a3:	4c 39 e0             	cmp    %r12,%rax
  4021a6:	72 03                	jb     4021ab <rio_read+0x54>
  4021a8:	44 89 e5             	mov    %r12d,%ebp
  4021ab:	4c 63 e5             	movslq %ebp,%r12
  4021ae:	48 8b 73 08          	mov    0x8(%rbx),%rsi
  4021b2:	4c 89 e2             	mov    %r12,%rdx
  4021b5:	4c 89 ef             	mov    %r13,%rdi
  4021b8:	e8 c3 eb ff ff       	callq  400d80 <memcpy@plt>
  4021bd:	4c 01 63 08          	add    %r12,0x8(%rbx)
  4021c1:	29 6b 04             	sub    %ebp,0x4(%rbx)
  4021c4:	4c 89 e0             	mov    %r12,%rax
  4021c7:	48 83 c4 08          	add    $0x8,%rsp
  4021cb:	5b                   	pop    %rbx
  4021cc:	5d                   	pop    %rbp
  4021cd:	41 5c                	pop    %r12
  4021cf:	41 5d                	pop    %r13
  4021d1:	c3                   	retq   
  4021d2:	48 c7 c0 ff ff ff ff 	mov    $0xffffffffffffffff,%rax
  4021d9:	eb ec                	jmp    4021c7 <rio_read+0x70>
  4021db:	b8 00 00 00 00       	mov    $0x0,%eax
  4021e0:	eb e5                	jmp    4021c7 <rio_read+0x70>

00000000004021e2 <rio_readlineb>:
  4021e2:	41 55                	push   %r13
  4021e4:	41 54                	push   %r12
  4021e6:	55                   	push   %rbp
  4021e7:	53                   	push   %rbx
  4021e8:	48 83 ec 18          	sub    $0x18,%rsp
  4021ec:	49 89 fd             	mov    %rdi,%r13
  4021ef:	48 89 f5             	mov    %rsi,%rbp
  4021f2:	49 89 d4             	mov    %rdx,%r12
  4021f5:	64 48 8b 04 25 28 00 	mov    %fs:0x28,%rax
  4021fc:	00 00 
  4021fe:	48 89 44 24 08       	mov    %rax,0x8(%rsp)
  402203:	31 c0                	xor    %eax,%eax
  402205:	bb 01 00 00 00       	mov    $0x1,%ebx
  40220a:	4c 39 e3             	cmp    %r12,%rbx
  40220d:	73 47                	jae    402256 <rio_readlineb+0x74>
  40220f:	ba 01 00 00 00       	mov    $0x1,%edx
  402214:	48 8d 74 24 07       	lea    0x7(%rsp),%rsi
  402219:	4c 89 ef             	mov    %r13,%rdi
  40221c:	e8 36 ff ff ff       	callq  402157 <rio_read>
  402221:	83 f8 01             	cmp    $0x1,%eax
  402224:	75 1c                	jne    402242 <rio_readlineb+0x60>
  402226:	48 8d 45 01          	lea    0x1(%rbp),%rax
  40222a:	0f b6 54 24 07       	movzbl 0x7(%rsp),%edx
  40222f:	88 55 00             	mov    %dl,0x0(%rbp)
  402232:	80 7c 24 07 0a       	cmpb   $0xa,0x7(%rsp)
  402237:	74 1a                	je     402253 <rio_readlineb+0x71>
  402239:	48 83 c3 01          	add    $0x1,%rbx
  40223d:	48 89 c5             	mov    %rax,%rbp
  402240:	eb c8                	jmp    40220a <rio_readlineb+0x28>
  402242:	85 c0                	test   %eax,%eax
  402244:	75 32                	jne    402278 <rio_readlineb+0x96>
  402246:	48 83 fb 01          	cmp    $0x1,%rbx
  40224a:	75 0a                	jne    402256 <rio_readlineb+0x74>
  40224c:	b8 00 00 00 00       	mov    $0x0,%eax
  402251:	eb 0a                	jmp    40225d <rio_readlineb+0x7b>
  402253:	48 89 c5             	mov    %rax,%rbp
  402256:	c6 45 00 00          	movb   $0x0,0x0(%rbp)
  40225a:	48 89 d8             	mov    %rbx,%rax
  40225d:	48 8b 4c 24 08       	mov    0x8(%rsp),%rcx
  402262:	64 48 33 0c 25 28 00 	xor    %fs:0x28,%rcx
  402269:	00 00 
  40226b:	75 14                	jne    402281 <rio_readlineb+0x9f>
  40226d:	48 83 c4 18          	add    $0x18,%rsp
  402271:	5b                   	pop    %rbx
  402272:	5d                   	pop    %rbp
  402273:	41 5c                	pop    %r12
  402275:	41 5d                	pop    %r13
  402277:	c3                   	retq   
  402278:	48 c7 c0 ff ff ff ff 	mov    $0xffffffffffffffff,%rax
  40227f:	eb dc                	jmp    40225d <rio_readlineb+0x7b>
  402281:	e8 5a ea ff ff       	callq  400ce0 <__stack_chk_fail@plt>

0000000000402286 <urlencode>:
  402286:	41 54                	push   %r12
  402288:	55                   	push   %rbp
  402289:	53                   	push   %rbx
  40228a:	48 83 ec 10          	sub    $0x10,%rsp
  40228e:	48 89 fb             	mov    %rdi,%rbx
  402291:	48 89 f5             	mov    %rsi,%rbp
  402294:	64 48 8b 04 25 28 00 	mov    %fs:0x28,%rax
  40229b:	00 00 
  40229d:	48 89 44 24 08       	mov    %rax,0x8(%rsp)
  4022a2:	31 c0                	xor    %eax,%eax
  4022a4:	48 c7 c1 ff ff ff ff 	mov    $0xffffffffffffffff,%rcx
  4022ab:	f2 ae                	repnz scas %es:(%rdi),%al
  4022ad:	48 89 ce             	mov    %rcx,%rsi
  4022b0:	48 f7 d6             	not    %rsi
  4022b3:	8d 46 ff             	lea    -0x1(%rsi),%eax
  4022b6:	eb 0f                	jmp    4022c7 <urlencode+0x41>
  4022b8:	44 88 45 00          	mov    %r8b,0x0(%rbp)
  4022bc:	48 8d 6d 01          	lea    0x1(%rbp),%rbp
  4022c0:	48 83 c3 01          	add    $0x1,%rbx
  4022c4:	44 89 e0             	mov    %r12d,%eax
  4022c7:	44 8d 60 ff          	lea    -0x1(%rax),%r12d
  4022cb:	85 c0                	test   %eax,%eax
  4022cd:	0f 84 a6 00 00 00    	je     402379 <urlencode+0xf3>
  4022d3:	44 0f b6 03          	movzbl (%rbx),%r8d
  4022d7:	41 80 f8 2a          	cmp    $0x2a,%r8b
  4022db:	0f 94 c2             	sete   %dl
  4022de:	41 80 f8 2d          	cmp    $0x2d,%r8b
  4022e2:	0f 94 c0             	sete   %al
  4022e5:	08 c2                	or     %al,%dl
  4022e7:	75 cf                	jne    4022b8 <urlencode+0x32>
  4022e9:	41 80 f8 2e          	cmp    $0x2e,%r8b
  4022ed:	74 c9                	je     4022b8 <urlencode+0x32>
  4022ef:	41 80 f8 5f          	cmp    $0x5f,%r8b
  4022f3:	74 c3                	je     4022b8 <urlencode+0x32>
  4022f5:	41 8d 40 d0          	lea    -0x30(%r8),%eax
  4022f9:	3c 09                	cmp    $0x9,%al
  4022fb:	76 bb                	jbe    4022b8 <urlencode+0x32>
  4022fd:	41 8d 40 bf          	lea    -0x41(%r8),%eax
  402301:	3c 19                	cmp    $0x19,%al
  402303:	76 b3                	jbe    4022b8 <urlencode+0x32>
  402305:	41 8d 40 9f          	lea    -0x61(%r8),%eax
  402309:	3c 19                	cmp    $0x19,%al
  40230b:	76 ab                	jbe    4022b8 <urlencode+0x32>
  40230d:	41 80 f8 20          	cmp    $0x20,%r8b
  402311:	74 54                	je     402367 <urlencode+0xe1>
  402313:	41 8d 40 e0          	lea    -0x20(%r8),%eax
  402317:	3c 5f                	cmp    $0x5f,%al
  402319:	0f 96 c2             	setbe  %dl
  40231c:	41 80 f8 09          	cmp    $0x9,%r8b
  402320:	0f 94 c0             	sete   %al
  402323:	08 c2                	or     %al,%dl
  402325:	74 4d                	je     402374 <urlencode+0xee>
  402327:	45 0f b6 c0          	movzbl %r8b,%r8d
  40232b:	b9 58 36 40 00       	mov    $0x403658,%ecx
  402330:	ba 08 00 00 00       	mov    $0x8,%edx
  402335:	be 01 00 00 00       	mov    $0x1,%esi
  40233a:	48 89 e7             	mov    %rsp,%rdi
  40233d:	b8 00 00 00 00       	mov    $0x0,%eax
  402342:	e8 19 eb ff ff       	callq  400e60 <__sprintf_chk@plt>
  402347:	0f b6 04 24          	movzbl (%rsp),%eax
  40234b:	88 45 00             	mov    %al,0x0(%rbp)
  40234e:	0f b6 44 24 01       	movzbl 0x1(%rsp),%eax
  402353:	88 45 01             	mov    %al,0x1(%rbp)
  402356:	0f b6 44 24 02       	movzbl 0x2(%rsp),%eax
  40235b:	88 45 02             	mov    %al,0x2(%rbp)
  40235e:	48 8d 6d 03          	lea    0x3(%rbp),%rbp
  402362:	e9 59 ff ff ff       	jmpq   4022c0 <urlencode+0x3a>
  402367:	c6 45 00 2b          	movb   $0x2b,0x0(%rbp)
  40236b:	48 8d 6d 01          	lea    0x1(%rbp),%rbp
  40236f:	e9 4c ff ff ff       	jmpq   4022c0 <urlencode+0x3a>
  402374:	b8 ff ff ff ff       	mov    $0xffffffff,%eax
  402379:	48 8b 74 24 08       	mov    0x8(%rsp),%rsi
  40237e:	64 48 33 34 25 28 00 	xor    %fs:0x28,%rsi
  402385:	00 00 
  402387:	75 09                	jne    402392 <urlencode+0x10c>
  402389:	48 83 c4 10          	add    $0x10,%rsp
  40238d:	5b                   	pop    %rbx
  40238e:	5d                   	pop    %rbp
  40238f:	41 5c                	pop    %r12
  402391:	c3                   	retq   
  402392:	e8 49 e9 ff ff       	callq  400ce0 <__stack_chk_fail@plt>

0000000000402397 <submitr>:
  402397:	41 57                	push   %r15
  402399:	41 56                	push   %r14
  40239b:	41 55                	push   %r13
  40239d:	41 54                	push   %r12
  40239f:	55                   	push   %rbp
  4023a0:	53                   	push   %rbx
  4023a1:	48 81 ec 58 a0 00 00 	sub    $0xa058,%rsp
  4023a8:	49 89 fc             	mov    %rdi,%r12
  4023ab:	89 74 24 04          	mov    %esi,0x4(%rsp)
  4023af:	49 89 d7             	mov    %rdx,%r15
  4023b2:	49 89 ce             	mov    %rcx,%r14
  4023b5:	4c 89 44 24 08       	mov    %r8,0x8(%rsp)
  4023ba:	4d 89 cd             	mov    %r9,%r13
  4023bd:	48 8b ac 24 90 a0 00 	mov    0xa090(%rsp),%rbp
  4023c4:	00 
  4023c5:	64 48 8b 04 25 28 00 	mov    %fs:0x28,%rax
  4023cc:	00 00 
  4023ce:	48 89 84 24 48 a0 00 	mov    %rax,0xa048(%rsp)
  4023d5:	00 
  4023d6:	31 c0                	xor    %eax,%eax
  4023d8:	c7 44 24 1c 00 00 00 	movl   $0x0,0x1c(%rsp)
  4023df:	00 
  4023e0:	ba 00 00 00 00       	mov    $0x0,%edx
  4023e5:	be 01 00 00 00       	mov    $0x1,%esi
  4023ea:	bf 02 00 00 00       	mov    $0x2,%edi
  4023ef:	e8 7c ea ff ff       	callq  400e70 <socket@plt>
  4023f4:	85 c0                	test   %eax,%eax
  4023f6:	0f 88 9b 02 00 00    	js     402697 <submitr+0x300>
  4023fc:	89 c3                	mov    %eax,%ebx
  4023fe:	4c 89 e7             	mov    %r12,%rdi
  402401:	e8 4a e9 ff ff       	callq  400d50 <gethostbyname@plt>
  402406:	48 85 c0             	test   %rax,%rax
  402409:	0f 84 d4 02 00 00    	je     4026e3 <submitr+0x34c>
  40240f:	48 c7 44 24 22 00 00 	movq   $0x0,0x22(%rsp)
  402416:	00 00 
  402418:	c7 44 24 2a 00 00 00 	movl   $0x0,0x2a(%rsp)
  40241f:	00 
  402420:	66 c7 44 24 2e 00 00 	movw   $0x0,0x2e(%rsp)
  402427:	66 c7 44 24 20 02 00 	movw   $0x2,0x20(%rsp)
  40242e:	48 63 50 14          	movslq 0x14(%rax),%rdx
  402432:	48 8b 40 18          	mov    0x18(%rax),%rax
  402436:	48 8b 30             	mov    (%rax),%rsi
  402439:	48 8d 7c 24 24       	lea    0x24(%rsp),%rdi
  40243e:	b9 0c 00 00 00       	mov    $0xc,%ecx
  402443:	e8 18 e9 ff ff       	callq  400d60 <__memmove_chk@plt>
  402448:	0f b7 44 24 04       	movzwl 0x4(%rsp),%eax
  40244d:	66 c1 c8 08          	ror    $0x8,%ax
  402451:	66 89 44 24 22       	mov    %ax,0x22(%rsp)
  402456:	ba 10 00 00 00       	mov    $0x10,%edx
  40245b:	48 8d 74 24 20       	lea    0x20(%rsp),%rsi
  402460:	89 df                	mov    %ebx,%edi
  402462:	e8 d9 e9 ff ff       	callq  400e40 <connect@plt>
  402467:	85 c0                	test   %eax,%eax
  402469:	0f 88 dc 02 00 00    	js     40274b <submitr+0x3b4>
  40246f:	48 c7 c6 ff ff ff ff 	mov    $0xffffffffffffffff,%rsi
  402476:	b8 00 00 00 00       	mov    $0x0,%eax
  40247b:	48 89 f1             	mov    %rsi,%rcx
  40247e:	4c 89 ef             	mov    %r13,%rdi
  402481:	f2 ae                	repnz scas %es:(%rdi),%al
  402483:	48 89 ca             	mov    %rcx,%rdx
  402486:	48 f7 d2             	not    %rdx
  402489:	48 89 f1             	mov    %rsi,%rcx
  40248c:	4c 89 ff             	mov    %r15,%rdi
  40248f:	f2 ae                	repnz scas %es:(%rdi),%al
  402491:	48 f7 d1             	not    %rcx
  402494:	49 89 c8             	mov    %rcx,%r8
  402497:	48 89 f1             	mov    %rsi,%rcx
  40249a:	4c 89 f7             	mov    %r14,%rdi
  40249d:	f2 ae                	repnz scas %es:(%rdi),%al
  40249f:	48 f7 d1             	not    %rcx
  4024a2:	4d 8d 44 08 fe       	lea    -0x2(%r8,%rcx,1),%r8
  4024a7:	48 89 f1             	mov    %rsi,%rcx
  4024aa:	48 8b 7c 24 08       	mov    0x8(%rsp),%rdi
  4024af:	f2 ae                	repnz scas %es:(%rdi),%al
  4024b1:	48 89 c8             	mov    %rcx,%rax
  4024b4:	48 f7 d0             	not    %rax
  4024b7:	49 8d 4c 00 ff       	lea    -0x1(%r8,%rax,1),%rcx
  4024bc:	48 8d 44 52 fd       	lea    -0x3(%rdx,%rdx,2),%rax
  4024c1:	48 8d 84 01 80 00 00 	lea    0x80(%rcx,%rax,1),%rax
  4024c8:	00 
  4024c9:	48 3d 00 20 00 00    	cmp    $0x2000,%rax
  4024cf:	0f 87 d0 02 00 00    	ja     4027a5 <submitr+0x40e>
  4024d5:	48 8d b4 24 40 40 00 	lea    0x4040(%rsp),%rsi
  4024dc:	00 
  4024dd:	b9 00 04 00 00       	mov    $0x400,%ecx
  4024e2:	b8 00 00 00 00       	mov    $0x0,%eax
  4024e7:	48 89 f7             	mov    %rsi,%rdi
  4024ea:	f3 48 ab             	rep stos %rax,%es:(%rdi)
  4024ed:	4c 89 ef             	mov    %r13,%rdi
  4024f0:	e8 91 fd ff ff       	callq  402286 <urlencode>
  4024f5:	85 c0                	test   %eax,%eax
  4024f7:	0f 88 1b 03 00 00    	js     402818 <submitr+0x481>
  4024fd:	4c 8d ac 24 40 20 00 	lea    0x2040(%rsp),%r13
  402504:	00 
  402505:	41 54                	push   %r12
  402507:	48 8d 84 24 48 40 00 	lea    0x4048(%rsp),%rax
  40250e:	00 
  40250f:	50                   	push   %rax
  402510:	4d 89 f9             	mov    %r15,%r9
  402513:	4d 89 f0             	mov    %r14,%r8
  402516:	b9 e8 35 40 00       	mov    $0x4035e8,%ecx
  40251b:	ba 00 20 00 00       	mov    $0x2000,%edx
  402520:	be 01 00 00 00       	mov    $0x1,%esi
  402525:	4c 89 ef             	mov    %r13,%rdi
  402528:	b8 00 00 00 00       	mov    $0x0,%eax
  40252d:	e8 2e e9 ff ff       	callq  400e60 <__sprintf_chk@plt>
  402532:	48 c7 c1 ff ff ff ff 	mov    $0xffffffffffffffff,%rcx
  402539:	b8 00 00 00 00       	mov    $0x0,%eax
  40253e:	4c 89 ef             	mov    %r13,%rdi
  402541:	f2 ae                	repnz scas %es:(%rdi),%al
  402543:	48 89 ca             	mov    %rcx,%rdx
  402546:	48 f7 d2             	not    %rdx
  402549:	48 8d 52 ff          	lea    -0x1(%rdx),%rdx
  40254d:	4c 89 ee             	mov    %r13,%rsi
  402550:	89 df                	mov    %ebx,%edi
  402552:	e8 a2 fb ff ff       	callq  4020f9 <rio_writen>
  402557:	48 83 c4 10          	add    $0x10,%rsp
  40255b:	48 85 c0             	test   %rax,%rax
  40255e:	0f 88 3f 03 00 00    	js     4028a3 <submitr+0x50c>
  402564:	89 de                	mov    %ebx,%esi
  402566:	48 8d 7c 24 30       	lea    0x30(%rsp),%rdi
  40256b:	e8 49 fb ff ff       	callq  4020b9 <rio_readinitb>
  402570:	ba 00 20 00 00       	mov    $0x2000,%edx
  402575:	48 8d b4 24 40 20 00 	lea    0x2040(%rsp),%rsi
  40257c:	00 
  40257d:	48 8d 7c 24 30       	lea    0x30(%rsp),%rdi
  402582:	e8 5b fc ff ff       	callq  4021e2 <rio_readlineb>
  402587:	48 85 c0             	test   %rax,%rax
  40258a:	0f 8e 82 03 00 00    	jle    402912 <submitr+0x57b>
  402590:	4c 8d 84 24 40 80 00 	lea    0x8040(%rsp),%r8
  402597:	00 
  402598:	48 8d 4c 24 1c       	lea    0x1c(%rsp),%rcx
  40259d:	48 8d 94 24 40 60 00 	lea    0x6040(%rsp),%rdx
  4025a4:	00 
  4025a5:	be 5f 36 40 00       	mov    $0x40365f,%esi
  4025aa:	48 8d bc 24 40 20 00 	lea    0x2040(%rsp),%rdi
  4025b1:	00 
  4025b2:	b8 00 00 00 00       	mov    $0x0,%eax
  4025b7:	e8 04 e8 ff ff       	callq  400dc0 <__isoc99_sscanf@plt>
  4025bc:	48 8d b4 24 40 20 00 	lea    0x2040(%rsp),%rsi
  4025c3:	00 
  4025c4:	bf 76 36 40 00       	mov    $0x403676,%edi
  4025c9:	b9 03 00 00 00       	mov    $0x3,%ecx
  4025ce:	f3 a6                	repz cmpsb %es:(%rdi),%ds:(%rsi)
  4025d0:	0f 97 c0             	seta   %al
  4025d3:	1c 00                	sbb    $0x0,%al
  4025d5:	84 c0                	test   %al,%al
  4025d7:	0f 84 b3 03 00 00    	je     402990 <submitr+0x5f9>
  4025dd:	ba 00 20 00 00       	mov    $0x2000,%edx
  4025e2:	48 8d b4 24 40 20 00 	lea    0x2040(%rsp),%rsi
  4025e9:	00 
  4025ea:	48 8d 7c 24 30       	lea    0x30(%rsp),%rdi
  4025ef:	e8 ee fb ff ff       	callq  4021e2 <rio_readlineb>
  4025f4:	48 85 c0             	test   %rax,%rax
  4025f7:	7f c3                	jg     4025bc <submitr+0x225>
  4025f9:	48 b8 45 72 72 6f 72 	movabs $0x43203a726f727245,%rax
  402600:	3a 20 43 
  402603:	48 ba 6c 69 65 6e 74 	movabs $0x6e7520746e65696c,%rdx
  40260a:	20 75 6e 
  40260d:	48 89 45 00          	mov    %rax,0x0(%rbp)
  402611:	48 89 55 08          	mov    %rdx,0x8(%rbp)
  402615:	48 b8 61 62 6c 65 20 	movabs $0x206f7420656c6261,%rax
  40261c:	74 6f 20 
  40261f:	48 ba 72 65 61 64 20 	movabs $0x6165682064616572,%rdx
  402626:	68 65 61 
  402629:	48 89 45 10          	mov    %rax,0x10(%rbp)
  40262d:	48 89 55 18          	mov    %rdx,0x18(%rbp)
  402631:	48 b8 64 65 72 73 20 	movabs $0x6f72662073726564,%rax
  402638:	66 72 6f 
  40263b:	48 ba 6d 20 74 68 65 	movabs $0x657220656874206d,%rdx
  402642:	20 72 65 
  402645:	48 89 45 20          	mov    %rax,0x20(%rbp)
  402649:	48 89 55 28          	mov    %rdx,0x28(%rbp)
  40264d:	48 b8 73 75 6c 74 20 	movabs $0x72657320746c7573,%rax
  402654:	73 65 72 
  402657:	48 89 45 30          	mov    %rax,0x30(%rbp)
  40265b:	c7 45 38 76 65 72 00 	movl   $0x726576,0x38(%rbp)
  402662:	89 df                	mov    %ebx,%edi
  402664:	e8 b7 e6 ff ff       	callq  400d20 <close@plt>
  402669:	b8 ff ff ff ff       	mov    $0xffffffff,%eax
  40266e:	48 8b 9c 24 48 a0 00 	mov    0xa048(%rsp),%rbx
  402675:	00 
  402676:	64 48 33 1c 25 28 00 	xor    %fs:0x28,%rbx
  40267d:	00 00 
  40267f:	0f 85 76 04 00 00    	jne    402afb <submitr+0x764>
  402685:	48 81 c4 58 a0 00 00 	add    $0xa058,%rsp
  40268c:	5b                   	pop    %rbx
  40268d:	5d                   	pop    %rbp
  40268e:	41 5c                	pop    %r12
  402690:	41 5d                	pop    %r13
  402692:	41 5e                	pop    %r14
  402694:	41 5f                	pop    %r15
  402696:	c3                   	retq   
  402697:	48 b8 45 72 72 6f 72 	movabs $0x43203a726f727245,%rax
  40269e:	3a 20 43 
  4026a1:	48 ba 6c 69 65 6e 74 	movabs $0x6e7520746e65696c,%rdx
  4026a8:	20 75 6e 
  4026ab:	48 89 45 00          	mov    %rax,0x0(%rbp)
  4026af:	48 89 55 08          	mov    %rdx,0x8(%rbp)
  4026b3:	48 b8 61 62 6c 65 20 	movabs $0x206f7420656c6261,%rax
  4026ba:	74 6f 20 
  4026bd:	48 ba 63 72 65 61 74 	movabs $0x7320657461657263,%rdx
  4026c4:	65 20 73 
  4026c7:	48 89 45 10          	mov    %rax,0x10(%rbp)
  4026cb:	48 89 55 18          	mov    %rdx,0x18(%rbp)
  4026cf:	c7 45 20 6f 63 6b 65 	movl   $0x656b636f,0x20(%rbp)
  4026d6:	66 c7 45 24 74 00    	movw   $0x74,0x24(%rbp)
  4026dc:	b8 ff ff ff ff       	mov    $0xffffffff,%eax
  4026e1:	eb 8b                	jmp    40266e <submitr+0x2d7>
  4026e3:	48 b8 45 72 72 6f 72 	movabs $0x44203a726f727245,%rax
  4026ea:	3a 20 44 
  4026ed:	48 ba 4e 53 20 69 73 	movabs $0x6e7520736920534e,%rdx
  4026f4:	20 75 6e 
  4026f7:	48 89 45 00          	mov    %rax,0x0(%rbp)
  4026fb:	48 89 55 08          	mov    %rdx,0x8(%rbp)
  4026ff:	48 b8 61 62 6c 65 20 	movabs $0x206f7420656c6261,%rax
  402706:	74 6f 20 
  402709:	48 ba 72 65 73 6f 6c 	movabs $0x2065766c6f736572,%rdx
  402710:	76 65 20 
  402713:	48 89 45 10          	mov    %rax,0x10(%rbp)
  402717:	48 89 55 18          	mov    %rdx,0x18(%rbp)
  40271b:	48 b8 73 65 72 76 65 	movabs $0x6120726576726573,%rax
  402722:	72 20 61 
  402725:	48 89 45 20          	mov    %rax,0x20(%rbp)
  402729:	c7 45 28 64 64 72 65 	movl   $0x65726464,0x28(%rbp)
  402730:	66 c7 45 2c 73 73    	movw   $0x7373,0x2c(%rbp)
  402736:	c6 45 2e 00          	movb   $0x0,0x2e(%rbp)
  40273a:	89 df                	mov    %ebx,%edi
  40273c:	e8 df e5 ff ff       	callq  400d20 <close@plt>
  402741:	b8 ff ff ff ff       	mov    $0xffffffff,%eax
  402746:	e9 23 ff ff ff       	jmpq   40266e <submitr+0x2d7>
  40274b:	48 b8 45 72 72 6f 72 	movabs $0x55203a726f727245,%rax
  402752:	3a 20 55 
  402755:	48 ba 6e 61 62 6c 65 	movabs $0x6f7420656c62616e,%rdx
  40275c:	20 74 6f 
  40275f:	48 89 45 00          	mov    %rax,0x0(%rbp)
  402763:	48 89 55 08          	mov    %rdx,0x8(%rbp)
  402767:	48 b8 20 63 6f 6e 6e 	movabs $0x7463656e6e6f6320,%rax
  40276e:	65 63 74 
  402771:	48 ba 20 74 6f 20 74 	movabs $0x20656874206f7420,%rdx
  402778:	68 65 20 
  40277b:	48 89 45 10          	mov    %rax,0x10(%rbp)
  40277f:	48 89 55 18          	mov    %rdx,0x18(%rbp)
  402783:	c7 45 20 73 65 72 76 	movl   $0x76726573,0x20(%rbp)
  40278a:	66 c7 45 24 65 72    	movw   $0x7265,0x24(%rbp)
  402790:	c6 45 26 00          	movb   $0x0,0x26(%rbp)
  402794:	89 df                	mov    %ebx,%edi
  402796:	e8 85 e5 ff ff       	callq  400d20 <close@plt>
  40279b:	b8 ff ff ff ff       	mov    $0xffffffff,%eax
  4027a0:	e9 c9 fe ff ff       	jmpq   40266e <submitr+0x2d7>
  4027a5:	48 b8 45 72 72 6f 72 	movabs $0x52203a726f727245,%rax
  4027ac:	3a 20 52 
  4027af:	48 ba 65 73 75 6c 74 	movabs $0x747320746c757365,%rdx
  4027b6:	20 73 74 
  4027b9:	48 89 45 00          	mov    %rax,0x0(%rbp)
  4027bd:	48 89 55 08          	mov    %rdx,0x8(%rbp)
  4027c1:	48 b8 72 69 6e 67 20 	movabs $0x6f6f7420676e6972,%rax
  4027c8:	74 6f 6f 
  4027cb:	48 ba 20 6c 61 72 67 	movabs $0x202e656772616c20,%rdx
  4027d2:	65 2e 20 
  4027d5:	48 89 45 10          	mov    %rax,0x10(%rbp)
  4027d9:	48 89 55 18          	mov    %rdx,0x18(%rbp)
  4027dd:	48 b8 49 6e 63 72 65 	movabs $0x6573616572636e49,%rax
  4027e4:	61 73 65 
  4027e7:	48 ba 20 53 55 42 4d 	movabs $0x5254494d42555320,%rdx
  4027ee:	49 54 52 
  4027f1:	48 89 45 20          	mov    %rax,0x20(%rbp)
  4027f5:	48 89 55 28          	mov    %rdx,0x28(%rbp)
  4027f9:	48 b8 5f 4d 41 58 42 	movabs $0x46554258414d5f,%rax
  402800:	55 46 00 
  402803:	48 89 45 30          	mov    %rax,0x30(%rbp)
  402807:	89 df                	mov    %ebx,%edi
  402809:	e8 12 e5 ff ff       	callq  400d20 <close@plt>
  40280e:	b8 ff ff ff ff       	mov    $0xffffffff,%eax
  402813:	e9 56 fe ff ff       	jmpq   40266e <submitr+0x2d7>
  402818:	48 b8 45 72 72 6f 72 	movabs $0x52203a726f727245,%rax
  40281f:	3a 20 52 
  402822:	48 ba 65 73 75 6c 74 	movabs $0x747320746c757365,%rdx
  402829:	20 73 74 
  40282c:	48 89 45 00          	mov    %rax,0x0(%rbp)
  402830:	48 89 55 08          	mov    %rdx,0x8(%rbp)
  402834:	48 b8 72 69 6e 67 20 	movabs $0x6e6f6320676e6972,%rax
  40283b:	63 6f 6e 
  40283e:	48 ba 74 61 69 6e 73 	movabs $0x6e6120736e696174,%rdx
  402845:	20 61 6e 
  402848:	48 89 45 10          	mov    %rax,0x10(%rbp)
  40284c:	48 89 55 18          	mov    %rdx,0x18(%rbp)
  402850:	48 b8 20 69 6c 6c 65 	movabs $0x6c6167656c6c6920,%rax
  402857:	67 61 6c 
  40285a:	48 ba 20 6f 72 20 75 	movabs $0x72706e7520726f20,%rdx
  402861:	6e 70 72 
  402864:	48 89 45 20          	mov    %rax,0x20(%rbp)
  402868:	48 89 55 28          	mov    %rdx,0x28(%rbp)
  40286c:	48 b8 69 6e 74 61 62 	movabs $0x20656c6261746e69,%rax
  402873:	6c 65 20 
  402876:	48 ba 63 68 61 72 61 	movabs $0x6574636172616863,%rdx
  40287d:	63 74 65 
  402880:	48 89 45 30          	mov    %rax,0x30(%rbp)
  402884:	48 89 55 38          	mov    %rdx,0x38(%rbp)
  402888:	66 c7 45 40 72 2e    	movw   $0x2e72,0x40(%rbp)
  40288e:	c6 45 42 00          	movb   $0x0,0x42(%rbp)
  402892:	89 df                	mov    %ebx,%edi
  402894:	e8 87 e4 ff ff       	callq  400d20 <close@plt>
  402899:	b8 ff ff ff ff       	mov    $0xffffffff,%eax
  40289e:	e9 cb fd ff ff       	jmpq   40266e <submitr+0x2d7>
  4028a3:	48 b8 45 72 72 6f 72 	movabs $0x43203a726f727245,%rax
  4028aa:	3a 20 43 
  4028ad:	48 ba 6c 69 65 6e 74 	movabs $0x6e7520746e65696c,%rdx
  4028b4:	20 75 6e 
  4028b7:	48 89 45 00          	mov    %rax,0x0(%rbp)
  4028bb:	48 89 55 08          	mov    %rdx,0x8(%rbp)
  4028bf:	48 b8 61 62 6c 65 20 	movabs $0x206f7420656c6261,%rax
  4028c6:	74 6f 20 
  4028c9:	48 ba 77 72 69 74 65 	movabs $0x6f74206574697277,%rdx
  4028d0:	20 74 6f 
  4028d3:	48 89 45 10          	mov    %rax,0x10(%rbp)
  4028d7:	48 89 55 18          	mov    %rdx,0x18(%rbp)
  4028db:	48 b8 20 74 68 65 20 	movabs $0x7365722065687420,%rax
  4028e2:	72 65 73 
  4028e5:	48 ba 75 6c 74 20 73 	movabs $0x7672657320746c75,%rdx
  4028ec:	65 72 76 
  4028ef:	48 89 45 20          	mov    %rax,0x20(%rbp)
  4028f3:	48 89 55 28          	mov    %rdx,0x28(%rbp)
  4028f7:	66 c7 45 30 65 72    	movw   $0x7265,0x30(%rbp)
  4028fd:	c6 45 32 00          	movb   $0x0,0x32(%rbp)
  402901:	89 df                	mov    %ebx,%edi
  402903:	e8 18 e4 ff ff       	callq  400d20 <close@plt>
  402908:	b8 ff ff ff ff       	mov    $0xffffffff,%eax
  40290d:	e9 5c fd ff ff       	jmpq   40266e <submitr+0x2d7>
  402912:	48 b8 45 72 72 6f 72 	movabs $0x43203a726f727245,%rax
  402919:	3a 20 43 
  40291c:	48 ba 6c 69 65 6e 74 	movabs $0x6e7520746e65696c,%rdx
  402923:	20 75 6e 
  402926:	48 89 45 00          	mov    %rax,0x0(%rbp)
  40292a:	48 89 55 08          	mov    %rdx,0x8(%rbp)
  40292e:	48 b8 61 62 6c 65 20 	movabs $0x206f7420656c6261,%rax
  402935:	74 6f 20 
  402938:	48 ba 72 65 61 64 20 	movabs $0x7269662064616572,%rdx
  40293f:	66 69 72 
  402942:	48 89 45 10          	mov    %rax,0x10(%rbp)
  402946:	48 89 55 18          	mov    %rdx,0x18(%rbp)
  40294a:	48 b8 73 74 20 68 65 	movabs $0x6564616568207473,%rax
  402951:	61 64 65 
  402954:	48 ba 72 20 66 72 6f 	movabs $0x72206d6f72662072,%rdx
  40295b:	6d 20 72 
  40295e:	48 89 45 20          	mov    %rax,0x20(%rbp)
  402962:	48 89 55 28          	mov    %rdx,0x28(%rbp)
  402966:	48 b8 65 73 75 6c 74 	movabs $0x657320746c757365,%rax
  40296d:	20 73 65 
  402970:	48 89 45 30          	mov    %rax,0x30(%rbp)
  402974:	c7 45 38 72 76 65 72 	movl   $0x72657672,0x38(%rbp)
  40297b:	c6 45 3c 00          	movb   $0x0,0x3c(%rbp)
  40297f:	89 df                	mov    %ebx,%edi
  402981:	e8 9a e3 ff ff       	callq  400d20 <close@plt>
  402986:	b8 ff ff ff ff       	mov    $0xffffffff,%eax
  40298b:	e9 de fc ff ff       	jmpq   40266e <submitr+0x2d7>
  402990:	ba 00 20 00 00       	mov    $0x2000,%edx
  402995:	48 8d b4 24 40 20 00 	lea    0x2040(%rsp),%rsi
  40299c:	00 
  40299d:	48 8d 7c 24 30       	lea    0x30(%rsp),%rdi
  4029a2:	e8 3b f8 ff ff       	callq  4021e2 <rio_readlineb>
  4029a7:	48 85 c0             	test   %rax,%rax
  4029aa:	0f 8e 90 00 00 00    	jle    402a40 <submitr+0x6a9>
  4029b0:	44 8b 44 24 1c       	mov    0x1c(%rsp),%r8d
  4029b5:	41 81 f8 c8 00 00 00 	cmp    $0xc8,%r8d
  4029bc:	0f 85 02 01 00 00    	jne    402ac4 <submitr+0x72d>
  4029c2:	48 8d b4 24 40 20 00 	lea    0x2040(%rsp),%rsi
  4029c9:	00 
  4029ca:	48 89 ef             	mov    %rbp,%rdi
  4029cd:	e8 de e2 ff ff       	callq  400cb0 <strcpy@plt>
  4029d2:	89 df                	mov    %ebx,%edi
  4029d4:	e8 47 e3 ff ff       	callq  400d20 <close@plt>
  4029d9:	bf 70 36 40 00       	mov    $0x403670,%edi
  4029de:	b9 04 00 00 00       	mov    $0x4,%ecx
  4029e3:	48 89 ee             	mov    %rbp,%rsi
  4029e6:	f3 a6                	repz cmpsb %es:(%rdi),%ds:(%rsi)
  4029e8:	0f 97 c0             	seta   %al
  4029eb:	1c 00                	sbb    $0x0,%al
  4029ed:	0f be c0             	movsbl %al,%eax
  4029f0:	85 c0                	test   %eax,%eax
  4029f2:	0f 84 76 fc ff ff    	je     40266e <submitr+0x2d7>
  4029f8:	bf 74 36 40 00       	mov    $0x403674,%edi
  4029fd:	b9 05 00 00 00       	mov    $0x5,%ecx
  402a02:	48 89 ee             	mov    %rbp,%rsi
  402a05:	f3 a6                	repz cmpsb %es:(%rdi),%ds:(%rsi)
  402a07:	0f 97 c0             	seta   %al
  402a0a:	1c 00                	sbb    $0x0,%al
  402a0c:	0f be c0             	movsbl %al,%eax
  402a0f:	85 c0                	test   %eax,%eax
  402a11:	0f 84 57 fc ff ff    	je     40266e <submitr+0x2d7>
  402a17:	bf 79 36 40 00       	mov    $0x403679,%edi
  402a1c:	b9 03 00 00 00       	mov    $0x3,%ecx
  402a21:	48 89 ee             	mov    %rbp,%rsi
  402a24:	f3 a6                	repz cmpsb %es:(%rdi),%ds:(%rsi)
  402a26:	0f 97 c0             	seta   %al
  402a29:	1c 00                	sbb    $0x0,%al
  402a2b:	0f be c0             	movsbl %al,%eax
  402a2e:	85 c0                	test   %eax,%eax
  402a30:	0f 84 38 fc ff ff    	je     40266e <submitr+0x2d7>
  402a36:	b8 ff ff ff ff       	mov    $0xffffffff,%eax
  402a3b:	e9 2e fc ff ff       	jmpq   40266e <submitr+0x2d7>
  402a40:	48 b8 45 72 72 6f 72 	movabs $0x43203a726f727245,%rax
  402a47:	3a 20 43 
  402a4a:	48 ba 6c 69 65 6e 74 	movabs $0x6e7520746e65696c,%rdx
  402a51:	20 75 6e 
  402a54:	48 89 45 00          	mov    %rax,0x0(%rbp)
  402a58:	48 89 55 08          	mov    %rdx,0x8(%rbp)
  402a5c:	48 b8 61 62 6c 65 20 	movabs $0x206f7420656c6261,%rax
  402a63:	74 6f 20 
  402a66:	48 ba 72 65 61 64 20 	movabs $0x6174732064616572,%rdx
  402a6d:	73 74 61 
  402a70:	48 89 45 10          	mov    %rax,0x10(%rbp)
  402a74:	48 89 55 18          	mov    %rdx,0x18(%rbp)
  402a78:	48 b8 74 75 73 20 6d 	movabs $0x7373656d20737574,%rax
  402a7f:	65 73 73 
  402a82:	48 ba 61 67 65 20 66 	movabs $0x6d6f726620656761,%rdx
  402a89:	72 6f 6d 
  402a8c:	48 89 45 20          	mov    %rax,0x20(%rbp)
  402a90:	48 89 55 28          	mov    %rdx,0x28(%rbp)
  402a94:	48 b8 20 72 65 73 75 	movabs $0x20746c7573657220,%rax
  402a9b:	6c 74 20 
  402a9e:	48 89 45 30          	mov    %rax,0x30(%rbp)
  402aa2:	c7 45 38 73 65 72 76 	movl   $0x76726573,0x38(%rbp)
  402aa9:	66 c7 45 3c 65 72    	movw   $0x7265,0x3c(%rbp)
  402aaf:	c6 45 3e 00          	movb   $0x0,0x3e(%rbp)
  402ab3:	89 df                	mov    %ebx,%edi
  402ab5:	e8 66 e2 ff ff       	callq  400d20 <close@plt>
  402aba:	b8 ff ff ff ff       	mov    $0xffffffff,%eax
  402abf:	e9 aa fb ff ff       	jmpq   40266e <submitr+0x2d7>
  402ac4:	4c 8d 8c 24 40 80 00 	lea    0x8040(%rsp),%r9
  402acb:	00 
  402acc:	b9 28 36 40 00       	mov    $0x403628,%ecx
  402ad1:	48 c7 c2 ff ff ff ff 	mov    $0xffffffffffffffff,%rdx
  402ad8:	be 01 00 00 00       	mov    $0x1,%esi
  402add:	48 89 ef             	mov    %rbp,%rdi
  402ae0:	b8 00 00 00 00       	mov    $0x0,%eax
  402ae5:	e8 76 e3 ff ff       	callq  400e60 <__sprintf_chk@plt>
  402aea:	89 df                	mov    %ebx,%edi
  402aec:	e8 2f e2 ff ff       	callq  400d20 <close@plt>
  402af1:	b8 ff ff ff ff       	mov    $0xffffffff,%eax
  402af6:	e9 73 fb ff ff       	jmpq   40266e <submitr+0x2d7>
  402afb:	e8 e0 e1 ff ff       	callq  400ce0 <__stack_chk_fail@plt>

0000000000402b00 <init_timeout>:
  402b00:	85 ff                	test   %edi,%edi
  402b02:	74 26                	je     402b2a <init_timeout+0x2a>
  402b04:	53                   	push   %rbx
  402b05:	89 fb                	mov    %edi,%ebx
  402b07:	85 ff                	test   %edi,%edi
  402b09:	78 18                	js     402b23 <init_timeout+0x23>
  402b0b:	be cb 20 40 00       	mov    $0x4020cb,%esi
  402b10:	bf 0e 00 00 00       	mov    $0xe,%edi
  402b15:	e8 26 e2 ff ff       	callq  400d40 <signal@plt>
  402b1a:	89 df                	mov    %ebx,%edi
  402b1c:	e8 ef e1 ff ff       	callq  400d10 <alarm@plt>
  402b21:	5b                   	pop    %rbx
  402b22:	c3                   	retq   
  402b23:	bb 00 00 00 00       	mov    $0x0,%ebx
  402b28:	eb e1                	jmp    402b0b <init_timeout+0xb>
  402b2a:	f3 c3                	repz retq 

0000000000402b2c <init_driver>:
  402b2c:	55                   	push   %rbp
  402b2d:	53                   	push   %rbx
  402b2e:	48 83 ec 28          	sub    $0x28,%rsp
  402b32:	48 89 fd             	mov    %rdi,%rbp
  402b35:	64 48 8b 04 25 28 00 	mov    %fs:0x28,%rax
  402b3c:	00 00 
  402b3e:	48 89 44 24 18       	mov    %rax,0x18(%rsp)
  402b43:	31 c0                	xor    %eax,%eax
  402b45:	be 01 00 00 00       	mov    $0x1,%esi
  402b4a:	bf 0d 00 00 00       	mov    $0xd,%edi
  402b4f:	e8 ec e1 ff ff       	callq  400d40 <signal@plt>
  402b54:	be 01 00 00 00       	mov    $0x1,%esi
  402b59:	bf 1d 00 00 00       	mov    $0x1d,%edi
  402b5e:	e8 dd e1 ff ff       	callq  400d40 <signal@plt>
  402b63:	be 01 00 00 00       	mov    $0x1,%esi
  402b68:	bf 1d 00 00 00       	mov    $0x1d,%edi
  402b6d:	e8 ce e1 ff ff       	callq  400d40 <signal@plt>
  402b72:	ba 00 00 00 00       	mov    $0x0,%edx
  402b77:	be 01 00 00 00       	mov    $0x1,%esi
  402b7c:	bf 02 00 00 00       	mov    $0x2,%edi
  402b81:	e8 ea e2 ff ff       	callq  400e70 <socket@plt>
  402b86:	85 c0                	test   %eax,%eax
  402b88:	0f 88 9c 00 00 00    	js     402c2a <init_driver+0xfe>
  402b8e:	89 c3                	mov    %eax,%ebx
  402b90:	bf 7c 36 40 00       	mov    $0x40367c,%edi
  402b95:	e8 b6 e1 ff ff       	callq  400d50 <gethostbyname@plt>
  402b9a:	48 85 c0             	test   %rax,%rax
  402b9d:	0f 84 d3 00 00 00    	je     402c76 <init_driver+0x14a>
  402ba3:	48 c7 44 24 02 00 00 	movq   $0x0,0x2(%rsp)
  402baa:	00 00 
  402bac:	c7 44 24 0a 00 00 00 	movl   $0x0,0xa(%rsp)
  402bb3:	00 
  402bb4:	66 c7 44 24 0e 00 00 	movw   $0x0,0xe(%rsp)
  402bbb:	66 c7 04 24 02 00    	movw   $0x2,(%rsp)
  402bc1:	48 63 50 14          	movslq 0x14(%rax),%rdx
  402bc5:	48 8b 40 18          	mov    0x18(%rax),%rax
  402bc9:	48 8b 30             	mov    (%rax),%rsi
  402bcc:	48 8d 7c 24 04       	lea    0x4(%rsp),%rdi
  402bd1:	b9 0c 00 00 00       	mov    $0xc,%ecx
  402bd6:	e8 85 e1 ff ff       	callq  400d60 <__memmove_chk@plt>
  402bdb:	66 c7 44 24 02 3c 9a 	movw   $0x9a3c,0x2(%rsp)
  402be2:	ba 10 00 00 00       	mov    $0x10,%edx
  402be7:	48 89 e6             	mov    %rsp,%rsi
  402bea:	89 df                	mov    %ebx,%edi
  402bec:	e8 4f e2 ff ff       	callq  400e40 <connect@plt>
  402bf1:	85 c0                	test   %eax,%eax
  402bf3:	0f 88 e5 00 00 00    	js     402cde <init_driver+0x1b2>
  402bf9:	89 df                	mov    %ebx,%edi
  402bfb:	e8 20 e1 ff ff       	callq  400d20 <close@plt>
  402c00:	66 c7 45 00 4f 4b    	movw   $0x4b4f,0x0(%rbp)
  402c06:	c6 45 02 00          	movb   $0x0,0x2(%rbp)
  402c0a:	b8 00 00 00 00       	mov    $0x0,%eax
  402c0f:	48 8b 4c 24 18       	mov    0x18(%rsp),%rcx
  402c14:	64 48 33 0c 25 28 00 	xor    %fs:0x28,%rcx
  402c1b:	00 00 
  402c1d:	0f 85 0e 01 00 00    	jne    402d31 <init_driver+0x205>
  402c23:	48 83 c4 28          	add    $0x28,%rsp
  402c27:	5b                   	pop    %rbx
  402c28:	5d                   	pop    %rbp
  402c29:	c3                   	retq   
  402c2a:	48 b8 45 72 72 6f 72 	movabs $0x43203a726f727245,%rax
  402c31:	3a 20 43 
  402c34:	48 ba 6c 69 65 6e 74 	movabs $0x6e7520746e65696c,%rdx
  402c3b:	20 75 6e 
  402c3e:	48 89 45 00          	mov    %rax,0x0(%rbp)
  402c42:	48 89 55 08          	mov    %rdx,0x8(%rbp)
  402c46:	48 b8 61 62 6c 65 20 	movabs $0x206f7420656c6261,%rax
  402c4d:	74 6f 20 
  402c50:	48 ba 63 72 65 61 74 	movabs $0x7320657461657263,%rdx
  402c57:	65 20 73 
  402c5a:	48 89 45 10          	mov    %rax,0x10(%rbp)
  402c5e:	48 89 55 18          	mov    %rdx,0x18(%rbp)
  402c62:	c7 45 20 6f 63 6b 65 	movl   $0x656b636f,0x20(%rbp)
  402c69:	66 c7 45 24 74 00    	movw   $0x74,0x24(%rbp)
  402c6f:	b8 ff ff ff ff       	mov    $0xffffffff,%eax
  402c74:	eb 99                	jmp    402c0f <init_driver+0xe3>
  402c76:	48 b8 45 72 72 6f 72 	movabs $0x44203a726f727245,%rax
  402c7d:	3a 20 44 
  402c80:	48 ba 4e 53 20 69 73 	movabs $0x6e7520736920534e,%rdx
  402c87:	20 75 6e 
  402c8a:	48 89 45 00          	mov    %rax,0x0(%rbp)
  402c8e:	48 89 55 08          	mov    %rdx,0x8(%rbp)
  402c92:	48 b8 61 62 6c 65 20 	movabs $0x206f7420656c6261,%rax
  402c99:	74 6f 20 
  402c9c:	48 ba 72 65 73 6f 6c 	movabs $0x2065766c6f736572,%rdx
  402ca3:	76 65 20 
  402ca6:	48 89 45 10          	mov    %rax,0x10(%rbp)
  402caa:	48 89 55 18          	mov    %rdx,0x18(%rbp)
  402cae:	48 b8 73 65 72 76 65 	movabs $0x6120726576726573,%rax
  402cb5:	72 20 61 
  402cb8:	48 89 45 20          	mov    %rax,0x20(%rbp)
  402cbc:	c7 45 28 64 64 72 65 	movl   $0x65726464,0x28(%rbp)
  402cc3:	66 c7 45 2c 73 73    	movw   $0x7373,0x2c(%rbp)
  402cc9:	c6 45 2e 00          	movb   $0x0,0x2e(%rbp)
  402ccd:	89 df                	mov    %ebx,%edi
  402ccf:	e8 4c e0 ff ff       	callq  400d20 <close@plt>
  402cd4:	b8 ff ff ff ff       	mov    $0xffffffff,%eax
  402cd9:	e9 31 ff ff ff       	jmpq   402c0f <init_driver+0xe3>
  402cde:	48 b8 45 72 72 6f 72 	movabs $0x55203a726f727245,%rax
  402ce5:	3a 20 55 
  402ce8:	48 ba 6e 61 62 6c 65 	movabs $0x6f7420656c62616e,%rdx
  402cef:	20 74 6f 
  402cf2:	48 89 45 00          	mov    %rax,0x0(%rbp)
  402cf6:	48 89 55 08          	mov    %rdx,0x8(%rbp)
  402cfa:	48 b8 20 63 6f 6e 6e 	movabs $0x7463656e6e6f6320,%rax
  402d01:	65 63 74 
  402d04:	48 ba 20 74 6f 20 73 	movabs $0x76726573206f7420,%rdx
  402d0b:	65 72 76 
  402d0e:	48 89 45 10          	mov    %rax,0x10(%rbp)
  402d12:	48 89 55 18          	mov    %rdx,0x18(%rbp)
  402d16:	66 c7 45 20 65 72    	movw   $0x7265,0x20(%rbp)
  402d1c:	c6 45 22 00          	movb   $0x0,0x22(%rbp)
  402d20:	89 df                	mov    %ebx,%edi
  402d22:	e8 f9 df ff ff       	callq  400d20 <close@plt>
  402d27:	b8 ff ff ff ff       	mov    $0xffffffff,%eax
  402d2c:	e9 de fe ff ff       	jmpq   402c0f <init_driver+0xe3>
  402d31:	e8 aa df ff ff       	callq  400ce0 <__stack_chk_fail@plt>

0000000000402d36 <driver_post>:
  402d36:	53                   	push   %rbx
  402d37:	4c 89 cb             	mov    %r9,%rbx
  402d3a:	45 85 c0             	test   %r8d,%r8d
  402d3d:	75 18                	jne    402d57 <driver_post+0x21>
  402d3f:	48 85 ff             	test   %rdi,%rdi
  402d42:	74 05                	je     402d49 <driver_post+0x13>
  402d44:	80 3f 00             	cmpb   $0x0,(%rdi)
  402d47:	75 35                	jne    402d7e <driver_post+0x48>
  402d49:	66 c7 03 4f 4b       	movw   $0x4b4f,(%rbx)
  402d4e:	c6 43 02 00          	movb   $0x0,0x2(%rbx)
  402d52:	44 89 c0             	mov    %r8d,%eax
  402d55:	5b                   	pop    %rbx
  402d56:	c3                   	retq   
  402d57:	48 89 ca             	mov    %rcx,%rdx
  402d5a:	be 94 36 40 00       	mov    $0x403694,%esi
  402d5f:	bf 01 00 00 00       	mov    $0x1,%edi
  402d64:	b8 00 00 00 00       	mov    $0x0,%eax
  402d69:	e8 72 e0 ff ff       	callq  400de0 <__printf_chk@plt>
  402d6e:	66 c7 03 4f 4b       	movw   $0x4b4f,(%rbx)
  402d73:	c6 43 02 00          	movb   $0x0,0x2(%rbx)
  402d77:	b8 00 00 00 00       	mov    $0x0,%eax
  402d7c:	eb d7                	jmp    402d55 <driver_post+0x1f>
  402d7e:	48 83 ec 08          	sub    $0x8,%rsp
  402d82:	41 51                	push   %r9
  402d84:	49 89 c9             	mov    %rcx,%r9
  402d87:	49 89 d0             	mov    %rdx,%r8
  402d8a:	48 89 f9             	mov    %rdi,%rcx
  402d8d:	48 89 f2             	mov    %rsi,%rdx
  402d90:	be 9a 3c 00 00       	mov    $0x3c9a,%esi
  402d95:	bf 7c 36 40 00       	mov    $0x40367c,%edi
  402d9a:	e8 f8 f5 ff ff       	callq  402397 <submitr>
  402d9f:	48 83 c4 10          	add    $0x10,%rsp
  402da3:	eb b0                	jmp    402d55 <driver_post+0x1f>

0000000000402da5 <check>:
  402da5:	89 f8                	mov    %edi,%eax
  402da7:	c1 e8 1c             	shr    $0x1c,%eax
  402daa:	85 c0                	test   %eax,%eax
  402dac:	74 1d                	je     402dcb <check+0x26>
  402dae:	b9 00 00 00 00       	mov    $0x0,%ecx
  402db3:	83 f9 1f             	cmp    $0x1f,%ecx
  402db6:	7f 0d                	jg     402dc5 <check+0x20>
  402db8:	89 f8                	mov    %edi,%eax
  402dba:	d3 e8                	shr    %cl,%eax
  402dbc:	3c 0a                	cmp    $0xa,%al
  402dbe:	74 11                	je     402dd1 <check+0x2c>
  402dc0:	83 c1 08             	add    $0x8,%ecx
  402dc3:	eb ee                	jmp    402db3 <check+0xe>
  402dc5:	b8 01 00 00 00       	mov    $0x1,%eax
  402dca:	c3                   	retq   
  402dcb:	b8 00 00 00 00       	mov    $0x0,%eax
  402dd0:	c3                   	retq   
  402dd1:	b8 00 00 00 00       	mov    $0x0,%eax
  402dd6:	c3                   	retq   

0000000000402dd7 <gencookie>:
  402dd7:	53                   	push   %rbx
  402dd8:	83 c7 01             	add    $0x1,%edi
  402ddb:	e8 b0 de ff ff       	callq  400c90 <srandom@plt>
  402de0:	e8 bb df ff ff       	callq  400da0 <random@plt>
  402de5:	89 c3                	mov    %eax,%ebx
  402de7:	89 c7                	mov    %eax,%edi
  402de9:	e8 b7 ff ff ff       	callq  402da5 <check>
  402dee:	85 c0                	test   %eax,%eax
  402df0:	74 ee                	je     402de0 <gencookie+0x9>
  402df2:	89 d8                	mov    %ebx,%eax
  402df4:	5b                   	pop    %rbx
  402df5:	c3                   	retq   
  402df6:	66 2e 0f 1f 84 00 00 	nopw   %cs:0x0(%rax,%rax,1)
  402dfd:	00 00 00 

0000000000402e00 <__libc_csu_init>:
  402e00:	41 57                	push   %r15
  402e02:	41 56                	push   %r14
  402e04:	49 89 d7             	mov    %rdx,%r15
  402e07:	41 55                	push   %r13
  402e09:	41 54                	push   %r12
  402e0b:	4c 8d 25 fe 0f 20 00 	lea    0x200ffe(%rip),%r12        # 603e10 <__frame_dummy_init_array_entry>
  402e12:	55                   	push   %rbp
  402e13:	48 8d 2d fe 0f 20 00 	lea    0x200ffe(%rip),%rbp        # 603e18 <__init_array_end>
  402e1a:	53                   	push   %rbx
  402e1b:	41 89 fd             	mov    %edi,%r13d
  402e1e:	49 89 f6             	mov    %rsi,%r14
  402e21:	4c 29 e5             	sub    %r12,%rbp
  402e24:	48 83 ec 08          	sub    $0x8,%rsp
  402e28:	48 c1 fd 03          	sar    $0x3,%rbp
  402e2c:	e8 17 de ff ff       	callq  400c48 <_init>
  402e31:	48 85 ed             	test   %rbp,%rbp
  402e34:	74 20                	je     402e56 <__libc_csu_init+0x56>
  402e36:	31 db                	xor    %ebx,%ebx
  402e38:	0f 1f 84 00 00 00 00 	nopl   0x0(%rax,%rax,1)
  402e3f:	00 
  402e40:	4c 89 fa             	mov    %r15,%rdx
  402e43:	4c 89 f6             	mov    %r14,%rsi
  402e46:	44 89 ef             	mov    %r13d,%edi
  402e49:	41 ff 14 dc          	callq  *(%r12,%rbx,8)
  402e4d:	48 83 c3 01          	add    $0x1,%rbx
  402e51:	48 39 dd             	cmp    %rbx,%rbp
  402e54:	75 ea                	jne    402e40 <__libc_csu_init+0x40>
  402e56:	48 83 c4 08          	add    $0x8,%rsp
  402e5a:	5b                   	pop    %rbx
  402e5b:	5d                   	pop    %rbp
  402e5c:	41 5c                	pop    %r12
  402e5e:	41 5d                	pop    %r13
  402e60:	41 5e                	pop    %r14
  402e62:	41 5f                	pop    %r15
  402e64:	c3                   	retq   
  402e65:	90                   	nop
  402e66:	66 2e 0f 1f 84 00 00 	nopw   %cs:0x0(%rax,%rax,1)
  402e6d:	00 00 00 

0000000000402e70 <__libc_csu_fini>:
  402e70:	f3 c3                	repz retq 

Disassembly of section .fini:

0000000000402e74 <_fini>:
  402e74:	48 83 ec 08          	sub    $0x8,%rsp
  402e78:	48 83 c4 08          	add    $0x8,%rsp
  402e7c:	c3                   	retq   
