
rtarget:     file format elf64-x86-64


Disassembly of section .init:

0000000000400c48 <_init>:
  400c48:	48 83 ec 08          	sub    $0x8,%rsp
  400c4c:	48 8b 05 a5 43 20 00 	mov    0x2043a5(%rip),%rax        # 604ff8 <__gmon_start__>
  400c53:	48 85 c0             	test   %rax,%rax
  400c56:	74 02                	je     400c5a <_init+0x12>
  400c58:	ff d0                	callq  *%rax
  400c5a:	48 83 c4 08          	add    $0x8,%rsp
  400c5e:	c3                   	retq   

Disassembly of section .plt:

0000000000400c60 <.plt>:
  400c60:	ff 35 a2 43 20 00    	pushq  0x2043a2(%rip)        # 605008 <_GLOBAL_OFFSET_TABLE_+0x8>
  400c66:	ff 25 a4 43 20 00    	jmpq   *0x2043a4(%rip)        # 605010 <_GLOBAL_OFFSET_TABLE_+0x10>
  400c6c:	0f 1f 40 00          	nopl   0x0(%rax)

0000000000400c70 <strcasecmp@plt>:
  400c70:	ff 25 a2 43 20 00    	jmpq   *0x2043a2(%rip)        # 605018 <strcasecmp@GLIBC_2.2.5>
  400c76:	68 00 00 00 00       	pushq  $0x0
  400c7b:	e9 e0 ff ff ff       	jmpq   400c60 <.plt>

0000000000400c80 <__errno_location@plt>:
  400c80:	ff 25 9a 43 20 00    	jmpq   *0x20439a(%rip)        # 605020 <__errno_location@GLIBC_2.2.5>
  400c86:	68 01 00 00 00       	pushq  $0x1
  400c8b:	e9 d0 ff ff ff       	jmpq   400c60 <.plt>

0000000000400c90 <srandom@plt>:
  400c90:	ff 25 92 43 20 00    	jmpq   *0x204392(%rip)        # 605028 <srandom@GLIBC_2.2.5>
  400c96:	68 02 00 00 00       	pushq  $0x2
  400c9b:	e9 c0 ff ff ff       	jmpq   400c60 <.plt>

0000000000400ca0 <strncmp@plt>:
  400ca0:	ff 25 8a 43 20 00    	jmpq   *0x20438a(%rip)        # 605030 <strncmp@GLIBC_2.2.5>
  400ca6:	68 03 00 00 00       	pushq  $0x3
  400cab:	e9 b0 ff ff ff       	jmpq   400c60 <.plt>

0000000000400cb0 <strcpy@plt>:
  400cb0:	ff 25 82 43 20 00    	jmpq   *0x204382(%rip)        # 605038 <strcpy@GLIBC_2.2.5>
  400cb6:	68 04 00 00 00       	pushq  $0x4
  400cbb:	e9 a0 ff ff ff       	jmpq   400c60 <.plt>

0000000000400cc0 <puts@plt>:
  400cc0:	ff 25 7a 43 20 00    	jmpq   *0x20437a(%rip)        # 605040 <puts@GLIBC_2.2.5>
  400cc6:	68 05 00 00 00       	pushq  $0x5
  400ccb:	e9 90 ff ff ff       	jmpq   400c60 <.plt>

0000000000400cd0 <write@plt>:
  400cd0:	ff 25 72 43 20 00    	jmpq   *0x204372(%rip)        # 605048 <write@GLIBC_2.2.5>
  400cd6:	68 06 00 00 00       	pushq  $0x6
  400cdb:	e9 80 ff ff ff       	jmpq   400c60 <.plt>

0000000000400ce0 <__stack_chk_fail@plt>:
  400ce0:	ff 25 6a 43 20 00    	jmpq   *0x20436a(%rip)        # 605050 <__stack_chk_fail@GLIBC_2.4>
  400ce6:	68 07 00 00 00       	pushq  $0x7
  400ceb:	e9 70 ff ff ff       	jmpq   400c60 <.plt>

0000000000400cf0 <mmap@plt>:
  400cf0:	ff 25 62 43 20 00    	jmpq   *0x204362(%rip)        # 605058 <mmap@GLIBC_2.2.5>
  400cf6:	68 08 00 00 00       	pushq  $0x8
  400cfb:	e9 60 ff ff ff       	jmpq   400c60 <.plt>

0000000000400d00 <memset@plt>:
  400d00:	ff 25 5a 43 20 00    	jmpq   *0x20435a(%rip)        # 605060 <memset@GLIBC_2.2.5>
  400d06:	68 09 00 00 00       	pushq  $0x9
  400d0b:	e9 50 ff ff ff       	jmpq   400c60 <.plt>

0000000000400d10 <alarm@plt>:
  400d10:	ff 25 52 43 20 00    	jmpq   *0x204352(%rip)        # 605068 <alarm@GLIBC_2.2.5>
  400d16:	68 0a 00 00 00       	pushq  $0xa
  400d1b:	e9 40 ff ff ff       	jmpq   400c60 <.plt>

0000000000400d20 <close@plt>:
  400d20:	ff 25 4a 43 20 00    	jmpq   *0x20434a(%rip)        # 605070 <close@GLIBC_2.2.5>
  400d26:	68 0b 00 00 00       	pushq  $0xb
  400d2b:	e9 30 ff ff ff       	jmpq   400c60 <.plt>

0000000000400d30 <read@plt>:
  400d30:	ff 25 42 43 20 00    	jmpq   *0x204342(%rip)        # 605078 <read@GLIBC_2.2.5>
  400d36:	68 0c 00 00 00       	pushq  $0xc
  400d3b:	e9 20 ff ff ff       	jmpq   400c60 <.plt>

0000000000400d40 <signal@plt>:
  400d40:	ff 25 3a 43 20 00    	jmpq   *0x20433a(%rip)        # 605080 <signal@GLIBC_2.2.5>
  400d46:	68 0d 00 00 00       	pushq  $0xd
  400d4b:	e9 10 ff ff ff       	jmpq   400c60 <.plt>

0000000000400d50 <gethostbyname@plt>:
  400d50:	ff 25 32 43 20 00    	jmpq   *0x204332(%rip)        # 605088 <gethostbyname@GLIBC_2.2.5>
  400d56:	68 0e 00 00 00       	pushq  $0xe
  400d5b:	e9 00 ff ff ff       	jmpq   400c60 <.plt>

0000000000400d60 <__memmove_chk@plt>:
  400d60:	ff 25 2a 43 20 00    	jmpq   *0x20432a(%rip)        # 605090 <__memmove_chk@GLIBC_2.3.4>
  400d66:	68 0f 00 00 00       	pushq  $0xf
  400d6b:	e9 f0 fe ff ff       	jmpq   400c60 <.plt>

0000000000400d70 <strtol@plt>:
  400d70:	ff 25 22 43 20 00    	jmpq   *0x204322(%rip)        # 605098 <strtol@GLIBC_2.2.5>
  400d76:	68 10 00 00 00       	pushq  $0x10
  400d7b:	e9 e0 fe ff ff       	jmpq   400c60 <.plt>

0000000000400d80 <memcpy@plt>:
  400d80:	ff 25 1a 43 20 00    	jmpq   *0x20431a(%rip)        # 6050a0 <memcpy@GLIBC_2.14>
  400d86:	68 11 00 00 00       	pushq  $0x11
  400d8b:	e9 d0 fe ff ff       	jmpq   400c60 <.plt>

0000000000400d90 <time@plt>:
  400d90:	ff 25 12 43 20 00    	jmpq   *0x204312(%rip)        # 6050a8 <time@GLIBC_2.2.5>
  400d96:	68 12 00 00 00       	pushq  $0x12
  400d9b:	e9 c0 fe ff ff       	jmpq   400c60 <.plt>

0000000000400da0 <random@plt>:
  400da0:	ff 25 0a 43 20 00    	jmpq   *0x20430a(%rip)        # 6050b0 <random@GLIBC_2.2.5>
  400da6:	68 13 00 00 00       	pushq  $0x13
  400dab:	e9 b0 fe ff ff       	jmpq   400c60 <.plt>

0000000000400db0 <_IO_getc@plt>:
  400db0:	ff 25 02 43 20 00    	jmpq   *0x204302(%rip)        # 6050b8 <_IO_getc@GLIBC_2.2.5>
  400db6:	68 14 00 00 00       	pushq  $0x14
  400dbb:	e9 a0 fe ff ff       	jmpq   400c60 <.plt>

0000000000400dc0 <__isoc99_sscanf@plt>:
  400dc0:	ff 25 fa 42 20 00    	jmpq   *0x2042fa(%rip)        # 6050c0 <__isoc99_sscanf@GLIBC_2.7>
  400dc6:	68 15 00 00 00       	pushq  $0x15
  400dcb:	e9 90 fe ff ff       	jmpq   400c60 <.plt>

0000000000400dd0 <munmap@plt>:
  400dd0:	ff 25 f2 42 20 00    	jmpq   *0x2042f2(%rip)        # 6050c8 <munmap@GLIBC_2.2.5>
  400dd6:	68 16 00 00 00       	pushq  $0x16
  400ddb:	e9 80 fe ff ff       	jmpq   400c60 <.plt>

0000000000400de0 <__printf_chk@plt>:
  400de0:	ff 25 ea 42 20 00    	jmpq   *0x2042ea(%rip)        # 6050d0 <__printf_chk@GLIBC_2.3.4>
  400de6:	68 17 00 00 00       	pushq  $0x17
  400deb:	e9 70 fe ff ff       	jmpq   400c60 <.plt>

0000000000400df0 <fopen@plt>:
  400df0:	ff 25 e2 42 20 00    	jmpq   *0x2042e2(%rip)        # 6050d8 <fopen@GLIBC_2.2.5>
  400df6:	68 18 00 00 00       	pushq  $0x18
  400dfb:	e9 60 fe ff ff       	jmpq   400c60 <.plt>

0000000000400e00 <getopt@plt>:
  400e00:	ff 25 da 42 20 00    	jmpq   *0x2042da(%rip)        # 6050e0 <getopt@GLIBC_2.2.5>
  400e06:	68 19 00 00 00       	pushq  $0x19
  400e0b:	e9 50 fe ff ff       	jmpq   400c60 <.plt>

0000000000400e10 <strtoul@plt>:
  400e10:	ff 25 d2 42 20 00    	jmpq   *0x2042d2(%rip)        # 6050e8 <strtoul@GLIBC_2.2.5>
  400e16:	68 1a 00 00 00       	pushq  $0x1a
  400e1b:	e9 40 fe ff ff       	jmpq   400c60 <.plt>

0000000000400e20 <gethostname@plt>:
  400e20:	ff 25 ca 42 20 00    	jmpq   *0x2042ca(%rip)        # 6050f0 <gethostname@GLIBC_2.2.5>
  400e26:	68 1b 00 00 00       	pushq  $0x1b
  400e2b:	e9 30 fe ff ff       	jmpq   400c60 <.plt>

0000000000400e30 <exit@plt>:
  400e30:	ff 25 c2 42 20 00    	jmpq   *0x2042c2(%rip)        # 6050f8 <exit@GLIBC_2.2.5>
  400e36:	68 1c 00 00 00       	pushq  $0x1c
  400e3b:	e9 20 fe ff ff       	jmpq   400c60 <.plt>

0000000000400e40 <connect@plt>:
  400e40:	ff 25 ba 42 20 00    	jmpq   *0x2042ba(%rip)        # 605100 <connect@GLIBC_2.2.5>
  400e46:	68 1d 00 00 00       	pushq  $0x1d
  400e4b:	e9 10 fe ff ff       	jmpq   400c60 <.plt>

0000000000400e50 <__fprintf_chk@plt>:
  400e50:	ff 25 b2 42 20 00    	jmpq   *0x2042b2(%rip)        # 605108 <__fprintf_chk@GLIBC_2.3.4>
  400e56:	68 1e 00 00 00       	pushq  $0x1e
  400e5b:	e9 00 fe ff ff       	jmpq   400c60 <.plt>

0000000000400e60 <__sprintf_chk@plt>:
  400e60:	ff 25 aa 42 20 00    	jmpq   *0x2042aa(%rip)        # 605110 <__sprintf_chk@GLIBC_2.3.4>
  400e66:	68 1f 00 00 00       	pushq  $0x1f
  400e6b:	e9 f0 fd ff ff       	jmpq   400c60 <.plt>

0000000000400e70 <socket@plt>:
  400e70:	ff 25 a2 42 20 00    	jmpq   *0x2042a2(%rip)        # 605118 <socket@GLIBC_2.2.5>
  400e76:	68 20 00 00 00       	pushq  $0x20
  400e7b:	e9 e0 fd ff ff       	jmpq   400c60 <.plt>

Disassembly of section .text:

0000000000400e80 <_start>:
  400e80:	31 ed                	xor    %ebp,%ebp
  400e82:	49 89 d1             	mov    %rdx,%r9
  400e85:	5e                   	pop    %rsi
  400e86:	48 89 e2             	mov    %rsp,%rdx
  400e89:	48 83 e4 f0          	and    $0xfffffffffffffff0,%rsp
  400e8d:	50                   	push   %rax
  400e8e:	54                   	push   %rsp
  400e8f:	49 c7 c0 90 2f 40 00 	mov    $0x402f90,%r8
  400e96:	48 c7 c1 20 2f 40 00 	mov    $0x402f20,%rcx
  400e9d:	48 c7 c7 73 11 40 00 	mov    $0x401173,%rdi
  400ea4:	ff 15 46 41 20 00    	callq  *0x204146(%rip)        # 604ff0 <__libc_start_main@GLIBC_2.2.5>
  400eaa:	f4                   	hlt    
  400eab:	0f 1f 44 00 00       	nopl   0x0(%rax,%rax,1)

0000000000400eb0 <_dl_relocate_static_pie>:
  400eb0:	f3 c3                	repz retq 
  400eb2:	66 2e 0f 1f 84 00 00 	nopw   %cs:0x0(%rax,%rax,1)
  400eb9:	00 00 00 
  400ebc:	0f 1f 40 00          	nopl   0x0(%rax)

0000000000400ec0 <deregister_tm_clones>:
  400ec0:	55                   	push   %rbp
  400ec1:	b8 90 54 60 00       	mov    $0x605490,%eax
  400ec6:	48 3d 90 54 60 00    	cmp    $0x605490,%rax
  400ecc:	48 89 e5             	mov    %rsp,%rbp
  400ecf:	74 17                	je     400ee8 <deregister_tm_clones+0x28>
  400ed1:	b8 00 00 00 00       	mov    $0x0,%eax
  400ed6:	48 85 c0             	test   %rax,%rax
  400ed9:	74 0d                	je     400ee8 <deregister_tm_clones+0x28>
  400edb:	5d                   	pop    %rbp
  400edc:	bf 90 54 60 00       	mov    $0x605490,%edi
  400ee1:	ff e0                	jmpq   *%rax
  400ee3:	0f 1f 44 00 00       	nopl   0x0(%rax,%rax,1)
  400ee8:	5d                   	pop    %rbp
  400ee9:	c3                   	retq   
  400eea:	66 0f 1f 44 00 00    	nopw   0x0(%rax,%rax,1)

0000000000400ef0 <register_tm_clones>:
  400ef0:	be 90 54 60 00       	mov    $0x605490,%esi
  400ef5:	55                   	push   %rbp
  400ef6:	48 81 ee 90 54 60 00 	sub    $0x605490,%rsi
  400efd:	48 89 e5             	mov    %rsp,%rbp
  400f00:	48 c1 fe 03          	sar    $0x3,%rsi
  400f04:	48 89 f0             	mov    %rsi,%rax
  400f07:	48 c1 e8 3f          	shr    $0x3f,%rax
  400f0b:	48 01 c6             	add    %rax,%rsi
  400f0e:	48 d1 fe             	sar    %rsi
  400f11:	74 15                	je     400f28 <register_tm_clones+0x38>
  400f13:	b8 00 00 00 00       	mov    $0x0,%eax
  400f18:	48 85 c0             	test   %rax,%rax
  400f1b:	74 0b                	je     400f28 <register_tm_clones+0x38>
  400f1d:	5d                   	pop    %rbp
  400f1e:	bf 90 54 60 00       	mov    $0x605490,%edi
  400f23:	ff e0                	jmpq   *%rax
  400f25:	0f 1f 00             	nopl   (%rax)
  400f28:	5d                   	pop    %rbp
  400f29:	c3                   	retq   
  400f2a:	66 0f 1f 44 00 00    	nopw   0x0(%rax,%rax,1)

0000000000400f30 <__do_global_dtors_aux>:
  400f30:	80 3d 91 45 20 00 00 	cmpb   $0x0,0x204591(%rip)        # 6054c8 <completed.7698>
  400f37:	75 17                	jne    400f50 <__do_global_dtors_aux+0x20>
  400f39:	55                   	push   %rbp
  400f3a:	48 89 e5             	mov    %rsp,%rbp
  400f3d:	e8 7e ff ff ff       	callq  400ec0 <deregister_tm_clones>
  400f42:	c6 05 7f 45 20 00 01 	movb   $0x1,0x20457f(%rip)        # 6054c8 <completed.7698>
  400f49:	5d                   	pop    %rbp
  400f4a:	c3                   	retq   
  400f4b:	0f 1f 44 00 00       	nopl   0x0(%rax,%rax,1)
  400f50:	f3 c3                	repz retq 
  400f52:	0f 1f 40 00          	nopl   0x0(%rax)
  400f56:	66 2e 0f 1f 84 00 00 	nopw   %cs:0x0(%rax,%rax,1)
  400f5d:	00 00 00 

0000000000400f60 <frame_dummy>:
  400f60:	55                   	push   %rbp
  400f61:	48 89 e5             	mov    %rsp,%rbp
  400f64:	5d                   	pop    %rbp
  400f65:	eb 89                	jmp    400ef0 <register_tm_clones>

0000000000400f67 <usage>:
  400f67:	48 83 ec 08          	sub    $0x8,%rsp
  400f6b:	48 89 fa             	mov    %rdi,%rdx
  400f6e:	83 3d 93 45 20 00 00 	cmpl   $0x0,0x204593(%rip)        # 605508 <is_checker>
  400f75:	74 46                	je     400fbd <usage+0x56>
  400f77:	be a8 2f 40 00       	mov    $0x402fa8,%esi
  400f7c:	bf 01 00 00 00       	mov    $0x1,%edi
  400f81:	b8 00 00 00 00       	mov    $0x0,%eax
  400f86:	e8 55 fe ff ff       	callq  400de0 <__printf_chk@plt>
  400f8b:	bf e0 2f 40 00       	mov    $0x402fe0,%edi
  400f90:	e8 2b fd ff ff       	callq  400cc0 <puts@plt>
  400f95:	bf 58 31 40 00       	mov    $0x403158,%edi
  400f9a:	e8 21 fd ff ff       	callq  400cc0 <puts@plt>
  400f9f:	bf 08 30 40 00       	mov    $0x403008,%edi
  400fa4:	e8 17 fd ff ff       	callq  400cc0 <puts@plt>
  400fa9:	bf 72 31 40 00       	mov    $0x403172,%edi
  400fae:	e8 0d fd ff ff       	callq  400cc0 <puts@plt>
  400fb3:	bf 00 00 00 00       	mov    $0x0,%edi
  400fb8:	e8 73 fe ff ff       	callq  400e30 <exit@plt>
  400fbd:	be 8e 31 40 00       	mov    $0x40318e,%esi
  400fc2:	bf 01 00 00 00       	mov    $0x1,%edi
  400fc7:	b8 00 00 00 00       	mov    $0x0,%eax
  400fcc:	e8 0f fe ff ff       	callq  400de0 <__printf_chk@plt>
  400fd1:	bf 30 30 40 00       	mov    $0x403030,%edi
  400fd6:	e8 e5 fc ff ff       	callq  400cc0 <puts@plt>
  400fdb:	bf 58 30 40 00       	mov    $0x403058,%edi
  400fe0:	e8 db fc ff ff       	callq  400cc0 <puts@plt>
  400fe5:	bf ac 31 40 00       	mov    $0x4031ac,%edi
  400fea:	e8 d1 fc ff ff       	callq  400cc0 <puts@plt>
  400fef:	eb c2                	jmp    400fb3 <usage+0x4c>

0000000000400ff1 <initialize_target>:
  400ff1:	55                   	push   %rbp
  400ff2:	53                   	push   %rbx
  400ff3:	48 81 ec 18 21 00 00 	sub    $0x2118,%rsp
  400ffa:	89 f5                	mov    %esi,%ebp
  400ffc:	64 48 8b 04 25 28 00 	mov    %fs:0x28,%rax
  401003:	00 00 
  401005:	48 89 84 24 08 21 00 	mov    %rax,0x2108(%rsp)
  40100c:	00 
  40100d:	31 c0                	xor    %eax,%eax
  40100f:	89 3d e3 44 20 00    	mov    %edi,0x2044e3(%rip)        # 6054f8 <check_level>
  401015:	8b 3d 2d 41 20 00    	mov    0x20412d(%rip),%edi        # 605148 <target_id>
  40101b:	e8 d8 1e 00 00       	callq  402ef8 <gencookie>
  401020:	89 05 de 44 20 00    	mov    %eax,0x2044de(%rip)        # 605504 <cookie>
  401026:	89 c7                	mov    %eax,%edi
  401028:	e8 cb 1e 00 00       	callq  402ef8 <gencookie>
  40102d:	89 05 cd 44 20 00    	mov    %eax,0x2044cd(%rip)        # 605500 <authkey>
  401033:	8b 05 0f 41 20 00    	mov    0x20410f(%rip),%eax        # 605148 <target_id>
  401039:	8d 78 01             	lea    0x1(%rax),%edi
  40103c:	e8 4f fc ff ff       	callq  400c90 <srandom@plt>
  401041:	e8 5a fd ff ff       	callq  400da0 <random@plt>
  401046:	89 c7                	mov    %eax,%edi
  401048:	e8 f2 02 00 00       	callq  40133f <scramble>
  40104d:	89 c3                	mov    %eax,%ebx
  40104f:	85 ed                	test   %ebp,%ebp
  401051:	75 54                	jne    4010a7 <initialize_target+0xb6>
  401053:	b8 00 00 00 00       	mov    $0x0,%eax
  401058:	01 d8                	add    %ebx,%eax
  40105a:	0f b7 c0             	movzwl %ax,%eax
  40105d:	8d 04 c5 00 01 00 00 	lea    0x100(,%rax,8),%eax
  401064:	89 c0                	mov    %eax,%eax
  401066:	48 89 05 13 44 20 00 	mov    %rax,0x204413(%rip)        # 605480 <buf_offset>
  40106d:	c6 05 b4 50 20 00 72 	movb   $0x72,0x2050b4(%rip)        # 606128 <target_prefix>
  401074:	83 3d 0d 44 20 00 00 	cmpl   $0x0,0x20440d(%rip)        # 605488 <notify>
  40107b:	74 09                	je     401086 <initialize_target+0x95>
  40107d:	83 3d 84 44 20 00 00 	cmpl   $0x0,0x204484(%rip)        # 605508 <is_checker>
  401084:	74 39                	je     4010bf <initialize_target+0xce>
  401086:	48 8b 84 24 08 21 00 	mov    0x2108(%rsp),%rax
  40108d:	00 
  40108e:	64 48 33 04 25 28 00 	xor    %fs:0x28,%rax
  401095:	00 00 
  401097:	0f 85 d1 00 00 00    	jne    40116e <initialize_target+0x17d>
  40109d:	48 81 c4 18 21 00 00 	add    $0x2118,%rsp
  4010a4:	5b                   	pop    %rbx
  4010a5:	5d                   	pop    %rbp
  4010a6:	c3                   	retq   
  4010a7:	bf 00 00 00 00       	mov    $0x0,%edi
  4010ac:	e8 df fc ff ff       	callq  400d90 <time@plt>
  4010b1:	89 c7                	mov    %eax,%edi
  4010b3:	e8 d8 fb ff ff       	callq  400c90 <srandom@plt>
  4010b8:	e8 e3 fc ff ff       	callq  400da0 <random@plt>
  4010bd:	eb 99                	jmp    401058 <initialize_target+0x67>
  4010bf:	be 00 01 00 00       	mov    $0x100,%esi
  4010c4:	48 89 e7             	mov    %rsp,%rdi
  4010c7:	e8 54 fd ff ff       	callq  400e20 <gethostname@plt>
  4010cc:	89 c5                	mov    %eax,%ebp
  4010ce:	85 c0                	test   %eax,%eax
  4010d0:	75 23                	jne    4010f5 <initialize_target+0x104>
  4010d2:	89 c3                	mov    %eax,%ebx
  4010d4:	48 63 c3             	movslq %ebx,%rax
  4010d7:	48 8b 3c c5 60 51 60 	mov    0x605160(,%rax,8),%rdi
  4010de:	00 
  4010df:	48 85 ff             	test   %rdi,%rdi
  4010e2:	74 2a                	je     40110e <initialize_target+0x11d>
  4010e4:	48 89 e6             	mov    %rsp,%rsi
  4010e7:	e8 84 fb ff ff       	callq  400c70 <strcasecmp@plt>
  4010ec:	85 c0                	test   %eax,%eax
  4010ee:	74 19                	je     401109 <initialize_target+0x118>
  4010f0:	83 c3 01             	add    $0x1,%ebx
  4010f3:	eb df                	jmp    4010d4 <initialize_target+0xe3>
  4010f5:	bf 88 30 40 00       	mov    $0x403088,%edi
  4010fa:	e8 c1 fb ff ff       	callq  400cc0 <puts@plt>
  4010ff:	bf 08 00 00 00       	mov    $0x8,%edi
  401104:	e8 27 fd ff ff       	callq  400e30 <exit@plt>
  401109:	bd 01 00 00 00       	mov    $0x1,%ebp
  40110e:	85 ed                	test   %ebp,%ebp
  401110:	74 3b                	je     40114d <initialize_target+0x15c>
  401112:	48 8d bc 24 00 01 00 	lea    0x100(%rsp),%rdi
  401119:	00 
  40111a:	e8 2e 1b 00 00       	callq  402c4d <init_driver>
  40111f:	85 c0                	test   %eax,%eax
  401121:	0f 89 5f ff ff ff    	jns    401086 <initialize_target+0x95>
  401127:	48 8d 94 24 00 01 00 	lea    0x100(%rsp),%rdx
  40112e:	00 
  40112f:	be 00 31 40 00       	mov    $0x403100,%esi
  401134:	bf 01 00 00 00       	mov    $0x1,%edi
  401139:	b8 00 00 00 00       	mov    $0x0,%eax
  40113e:	e8 9d fc ff ff       	callq  400de0 <__printf_chk@plt>
  401143:	bf 08 00 00 00       	mov    $0x8,%edi
  401148:	e8 e3 fc ff ff       	callq  400e30 <exit@plt>
  40114d:	48 89 e2             	mov    %rsp,%rdx
  401150:	be c0 30 40 00       	mov    $0x4030c0,%esi
  401155:	bf 01 00 00 00       	mov    $0x1,%edi
  40115a:	b8 00 00 00 00       	mov    $0x0,%eax
  40115f:	e8 7c fc ff ff       	callq  400de0 <__printf_chk@plt>
  401164:	bf 08 00 00 00       	mov    $0x8,%edi
  401169:	e8 c2 fc ff ff       	callq  400e30 <exit@plt>
  40116e:	e8 6d fb ff ff       	callq  400ce0 <__stack_chk_fail@plt>

0000000000401173 <main>:
  401173:	41 56                	push   %r14
  401175:	41 55                	push   %r13
  401177:	41 54                	push   %r12
  401179:	55                   	push   %rbp
  40117a:	53                   	push   %rbx
  40117b:	41 89 fc             	mov    %edi,%r12d
  40117e:	48 89 f3             	mov    %rsi,%rbx
  401181:	be 8a 1f 40 00       	mov    $0x401f8a,%esi
  401186:	bf 0b 00 00 00       	mov    $0xb,%edi
  40118b:	e8 b0 fb ff ff       	callq  400d40 <signal@plt>
  401190:	be 3c 1f 40 00       	mov    $0x401f3c,%esi
  401195:	bf 07 00 00 00       	mov    $0x7,%edi
  40119a:	e8 a1 fb ff ff       	callq  400d40 <signal@plt>
  40119f:	be d8 1f 40 00       	mov    $0x401fd8,%esi
  4011a4:	bf 04 00 00 00       	mov    $0x4,%edi
  4011a9:	e8 92 fb ff ff       	callq  400d40 <signal@plt>
  4011ae:	83 3d 53 43 20 00 00 	cmpl   $0x0,0x204353(%rip)        # 605508 <is_checker>
  4011b5:	75 24                	jne    4011db <main+0x68>
  4011b7:	bd c5 31 40 00       	mov    $0x4031c5,%ebp
  4011bc:	48 8b 05 dd 42 20 00 	mov    0x2042dd(%rip),%rax        # 6054a0 <stdin@@GLIBC_2.2.5>
  4011c3:	48 89 05 26 43 20 00 	mov    %rax,0x204326(%rip)        # 6054f0 <infile>
  4011ca:	41 bd 00 00 00 00    	mov    $0x0,%r13d
  4011d0:	41 be 00 00 00 00    	mov    $0x0,%r14d
  4011d6:	e9 85 00 00 00       	jmpq   401260 <main+0xed>
  4011db:	be 26 20 40 00       	mov    $0x402026,%esi
  4011e0:	bf 0e 00 00 00       	mov    $0xe,%edi
  4011e5:	e8 56 fb ff ff       	callq  400d40 <signal@plt>
  4011ea:	bf 05 00 00 00       	mov    $0x5,%edi
  4011ef:	e8 1c fb ff ff       	callq  400d10 <alarm@plt>
  4011f4:	bd ca 31 40 00       	mov    $0x4031ca,%ebp
  4011f9:	eb c1                	jmp    4011bc <main+0x49>
  4011fb:	48 8b 3b             	mov    (%rbx),%rdi
  4011fe:	e8 64 fd ff ff       	callq  400f67 <usage>
  401203:	be 95 34 40 00       	mov    $0x403495,%esi
  401208:	48 8b 3d 99 42 20 00 	mov    0x204299(%rip),%rdi        # 6054a8 <optarg@@GLIBC_2.2.5>
  40120f:	e8 dc fb ff ff       	callq  400df0 <fopen@plt>
  401214:	48 89 05 d5 42 20 00 	mov    %rax,0x2042d5(%rip)        # 6054f0 <infile>
  40121b:	48 85 c0             	test   %rax,%rax
  40121e:	75 40                	jne    401260 <main+0xed>
  401220:	48 8b 0d 81 42 20 00 	mov    0x204281(%rip),%rcx        # 6054a8 <optarg@@GLIBC_2.2.5>
  401227:	ba d2 31 40 00       	mov    $0x4031d2,%edx
  40122c:	be 01 00 00 00       	mov    $0x1,%esi
  401231:	48 8b 3d 88 42 20 00 	mov    0x204288(%rip),%rdi        # 6054c0 <stderr@@GLIBC_2.2.5>
  401238:	e8 13 fc ff ff       	callq  400e50 <__fprintf_chk@plt>
  40123d:	b8 01 00 00 00       	mov    $0x1,%eax
  401242:	e9 cc 00 00 00       	jmpq   401313 <main+0x1a0>
  401247:	ba 10 00 00 00       	mov    $0x10,%edx
  40124c:	be 00 00 00 00       	mov    $0x0,%esi
  401251:	48 8b 3d 50 42 20 00 	mov    0x204250(%rip),%rdi        # 6054a8 <optarg@@GLIBC_2.2.5>
  401258:	e8 b3 fb ff ff       	callq  400e10 <strtoul@plt>
  40125d:	41 89 c6             	mov    %eax,%r14d
  401260:	48 89 ea             	mov    %rbp,%rdx
  401263:	48 89 de             	mov    %rbx,%rsi
  401266:	44 89 e7             	mov    %r12d,%edi
  401269:	e8 92 fb ff ff       	callq  400e00 <getopt@plt>
  40126e:	3c ff                	cmp    $0xff,%al
  401270:	74 57                	je     4012c9 <main+0x156>
  401272:	0f be d0             	movsbl %al,%edx
  401275:	83 e8 61             	sub    $0x61,%eax
  401278:	3c 10                	cmp    $0x10,%al
  40127a:	77 31                	ja     4012ad <main+0x13a>
  40127c:	0f b6 c0             	movzbl %al,%eax
  40127f:	ff 24 c5 10 32 40 00 	jmpq   *0x403210(,%rax,8)
  401286:	ba 0a 00 00 00       	mov    $0xa,%edx
  40128b:	be 00 00 00 00       	mov    $0x0,%esi
  401290:	48 8b 3d 11 42 20 00 	mov    0x204211(%rip),%rdi        # 6054a8 <optarg@@GLIBC_2.2.5>
  401297:	e8 d4 fa ff ff       	callq  400d70 <strtol@plt>
  40129c:	41 89 c5             	mov    %eax,%r13d
  40129f:	eb bf                	jmp    401260 <main+0xed>
  4012a1:	c7 05 dd 41 20 00 00 	movl   $0x0,0x2041dd(%rip)        # 605488 <notify>
  4012a8:	00 00 00 
  4012ab:	eb b3                	jmp    401260 <main+0xed>
  4012ad:	be ef 31 40 00       	mov    $0x4031ef,%esi
  4012b2:	bf 01 00 00 00       	mov    $0x1,%edi
  4012b7:	b8 00 00 00 00       	mov    $0x0,%eax
  4012bc:	e8 1f fb ff ff       	callq  400de0 <__printf_chk@plt>
  4012c1:	48 8b 3b             	mov    (%rbx),%rdi
  4012c4:	e8 9e fc ff ff       	callq  400f67 <usage>
  4012c9:	be 01 00 00 00       	mov    $0x1,%esi
  4012ce:	44 89 ef             	mov    %r13d,%edi
  4012d1:	e8 1b fd ff ff       	callq  400ff1 <initialize_target>
  4012d6:	83 3d 2b 42 20 00 00 	cmpl   $0x0,0x20422b(%rip)        # 605508 <is_checker>
  4012dd:	74 09                	je     4012e8 <main+0x175>
  4012df:	44 39 35 1a 42 20 00 	cmp    %r14d,0x20421a(%rip)        # 605500 <authkey>
  4012e6:	75 34                	jne    40131c <main+0x1a9>
  4012e8:	8b 15 16 42 20 00    	mov    0x204216(%rip),%edx        # 605504 <cookie>
  4012ee:	be 02 32 40 00       	mov    $0x403202,%esi
  4012f3:	bf 01 00 00 00       	mov    $0x1,%edi
  4012f8:	b8 00 00 00 00       	mov    $0x0,%eax
  4012fd:	e8 de fa ff ff       	callq  400de0 <__printf_chk@plt>
  401302:	48 8b 3d 77 41 20 00 	mov    0x204177(%rip),%rdi        # 605480 <buf_offset>
  401309:	e8 6b 0d 00 00       	callq  402079 <launch>
  40130e:	b8 00 00 00 00       	mov    $0x0,%eax
  401313:	5b                   	pop    %rbx
  401314:	5d                   	pop    %rbp
  401315:	41 5c                	pop    %r12
  401317:	41 5d                	pop    %r13
  401319:	41 5e                	pop    %r14
  40131b:	c3                   	retq   
  40131c:	44 89 f2             	mov    %r14d,%edx
  40131f:	be 28 31 40 00       	mov    $0x403128,%esi
  401324:	bf 01 00 00 00       	mov    $0x1,%edi
  401329:	b8 00 00 00 00       	mov    $0x0,%eax
  40132e:	e8 ad fa ff ff       	callq  400de0 <__printf_chk@plt>
  401333:	b8 00 00 00 00       	mov    $0x0,%eax
  401338:	e8 88 08 00 00       	callq  401bc5 <check_fail>
  40133d:	eb a9                	jmp    4012e8 <main+0x175>

000000000040133f <scramble>:
  40133f:	48 83 ec 38          	sub    $0x38,%rsp
  401343:	64 48 8b 04 25 28 00 	mov    %fs:0x28,%rax
  40134a:	00 00 
  40134c:	48 89 44 24 28       	mov    %rax,0x28(%rsp)
  401351:	31 c0                	xor    %eax,%eax
  401353:	eb 10                	jmp    401365 <scramble+0x26>
  401355:	69 d0 98 45 00 00    	imul   $0x4598,%eax,%edx
  40135b:	01 fa                	add    %edi,%edx
  40135d:	89 c1                	mov    %eax,%ecx
  40135f:	89 14 8c             	mov    %edx,(%rsp,%rcx,4)
  401362:	83 c0 01             	add    $0x1,%eax
  401365:	83 f8 09             	cmp    $0x9,%eax
  401368:	76 eb                	jbe    401355 <scramble+0x16>
  40136a:	8b 44 24 24          	mov    0x24(%rsp),%eax
  40136e:	69 c0 22 1a 00 00    	imul   $0x1a22,%eax,%eax
  401374:	89 44 24 24          	mov    %eax,0x24(%rsp)
  401378:	8b 44 24 0c          	mov    0xc(%rsp),%eax
  40137c:	69 c0 57 5a 00 00    	imul   $0x5a57,%eax,%eax
  401382:	89 44 24 0c          	mov    %eax,0xc(%rsp)
  401386:	8b 44 24 04          	mov    0x4(%rsp),%eax
  40138a:	69 c0 de 08 00 00    	imul   $0x8de,%eax,%eax
  401390:	89 44 24 04          	mov    %eax,0x4(%rsp)
  401394:	8b 44 24 0c          	mov    0xc(%rsp),%eax
  401398:	69 c0 b9 11 00 00    	imul   $0x11b9,%eax,%eax
  40139e:	89 44 24 0c          	mov    %eax,0xc(%rsp)
  4013a2:	8b 44 24 04          	mov    0x4(%rsp),%eax
  4013a6:	69 c0 f7 9c 00 00    	imul   $0x9cf7,%eax,%eax
  4013ac:	89 44 24 04          	mov    %eax,0x4(%rsp)
  4013b0:	8b 44 24 1c          	mov    0x1c(%rsp),%eax
  4013b4:	69 c0 64 35 00 00    	imul   $0x3564,%eax,%eax
  4013ba:	89 44 24 1c          	mov    %eax,0x1c(%rsp)
  4013be:	8b 44 24 10          	mov    0x10(%rsp),%eax
  4013c2:	69 c0 7f af 00 00    	imul   $0xaf7f,%eax,%eax
  4013c8:	89 44 24 10          	mov    %eax,0x10(%rsp)
  4013cc:	8b 44 24 20          	mov    0x20(%rsp),%eax
  4013d0:	69 c0 d4 f2 00 00    	imul   $0xf2d4,%eax,%eax
  4013d6:	89 44 24 20          	mov    %eax,0x20(%rsp)
  4013da:	8b 44 24 1c          	mov    0x1c(%rsp),%eax
  4013de:	69 c0 c1 5c 00 00    	imul   $0x5cc1,%eax,%eax
  4013e4:	89 44 24 1c          	mov    %eax,0x1c(%rsp)
  4013e8:	8b 44 24 20          	mov    0x20(%rsp),%eax
  4013ec:	69 c0 51 0e 00 00    	imul   $0xe51,%eax,%eax
  4013f2:	89 44 24 20          	mov    %eax,0x20(%rsp)
  4013f6:	8b 44 24 08          	mov    0x8(%rsp),%eax
  4013fa:	69 c0 69 a4 00 00    	imul   $0xa469,%eax,%eax
  401400:	89 44 24 08          	mov    %eax,0x8(%rsp)
  401404:	8b 44 24 1c          	mov    0x1c(%rsp),%eax
  401408:	69 c0 d4 28 00 00    	imul   $0x28d4,%eax,%eax
  40140e:	89 44 24 1c          	mov    %eax,0x1c(%rsp)
  401412:	8b 44 24 1c          	mov    0x1c(%rsp),%eax
  401416:	69 c0 36 28 00 00    	imul   $0x2836,%eax,%eax
  40141c:	89 44 24 1c          	mov    %eax,0x1c(%rsp)
  401420:	8b 44 24 0c          	mov    0xc(%rsp),%eax
  401424:	69 c0 57 9d 00 00    	imul   $0x9d57,%eax,%eax
  40142a:	89 44 24 0c          	mov    %eax,0xc(%rsp)
  40142e:	8b 44 24 08          	mov    0x8(%rsp),%eax
  401432:	69 c0 91 13 00 00    	imul   $0x1391,%eax,%eax
  401438:	89 44 24 08          	mov    %eax,0x8(%rsp)
  40143c:	8b 44 24 1c          	mov    0x1c(%rsp),%eax
  401440:	69 c0 6c a4 00 00    	imul   $0xa46c,%eax,%eax
  401446:	89 44 24 1c          	mov    %eax,0x1c(%rsp)
  40144a:	8b 44 24 0c          	mov    0xc(%rsp),%eax
  40144e:	69 c0 4d fb 00 00    	imul   $0xfb4d,%eax,%eax
  401454:	89 44 24 0c          	mov    %eax,0xc(%rsp)
  401458:	8b 44 24 14          	mov    0x14(%rsp),%eax
  40145c:	69 c0 81 86 00 00    	imul   $0x8681,%eax,%eax
  401462:	89 44 24 14          	mov    %eax,0x14(%rsp)
  401466:	8b 04 24             	mov    (%rsp),%eax
  401469:	69 c0 99 c8 00 00    	imul   $0xc899,%eax,%eax
  40146f:	89 04 24             	mov    %eax,(%rsp)
  401472:	8b 44 24 18          	mov    0x18(%rsp),%eax
  401476:	69 c0 ac 9e 00 00    	imul   $0x9eac,%eax,%eax
  40147c:	89 44 24 18          	mov    %eax,0x18(%rsp)
  401480:	8b 44 24 1c          	mov    0x1c(%rsp),%eax
  401484:	69 c0 af 84 00 00    	imul   $0x84af,%eax,%eax
  40148a:	89 44 24 1c          	mov    %eax,0x1c(%rsp)
  40148e:	8b 04 24             	mov    (%rsp),%eax
  401491:	69 c0 97 9e 00 00    	imul   $0x9e97,%eax,%eax
  401497:	89 04 24             	mov    %eax,(%rsp)
  40149a:	8b 44 24 18          	mov    0x18(%rsp),%eax
  40149e:	69 c0 07 8d 00 00    	imul   $0x8d07,%eax,%eax
  4014a4:	89 44 24 18          	mov    %eax,0x18(%rsp)
  4014a8:	8b 44 24 20          	mov    0x20(%rsp),%eax
  4014ac:	69 c0 c5 c1 00 00    	imul   $0xc1c5,%eax,%eax
  4014b2:	89 44 24 20          	mov    %eax,0x20(%rsp)
  4014b6:	8b 44 24 18          	mov    0x18(%rsp),%eax
  4014ba:	69 c0 81 21 00 00    	imul   $0x2181,%eax,%eax
  4014c0:	89 44 24 18          	mov    %eax,0x18(%rsp)
  4014c4:	8b 44 24 08          	mov    0x8(%rsp),%eax
  4014c8:	69 c0 f7 d3 00 00    	imul   $0xd3f7,%eax,%eax
  4014ce:	89 44 24 08          	mov    %eax,0x8(%rsp)
  4014d2:	8b 44 24 24          	mov    0x24(%rsp),%eax
  4014d6:	69 c0 d4 df 00 00    	imul   $0xdfd4,%eax,%eax
  4014dc:	89 44 24 24          	mov    %eax,0x24(%rsp)
  4014e0:	8b 44 24 10          	mov    0x10(%rsp),%eax
  4014e4:	69 c0 12 aa 00 00    	imul   $0xaa12,%eax,%eax
  4014ea:	89 44 24 10          	mov    %eax,0x10(%rsp)
  4014ee:	8b 44 24 1c          	mov    0x1c(%rsp),%eax
  4014f2:	69 c0 15 e9 00 00    	imul   $0xe915,%eax,%eax
  4014f8:	89 44 24 1c          	mov    %eax,0x1c(%rsp)
  4014fc:	8b 44 24 10          	mov    0x10(%rsp),%eax
  401500:	69 c0 dd 66 00 00    	imul   $0x66dd,%eax,%eax
  401506:	89 44 24 10          	mov    %eax,0x10(%rsp)
  40150a:	8b 44 24 04          	mov    0x4(%rsp),%eax
  40150e:	69 c0 39 28 00 00    	imul   $0x2839,%eax,%eax
  401514:	89 44 24 04          	mov    %eax,0x4(%rsp)
  401518:	8b 44 24 0c          	mov    0xc(%rsp),%eax
  40151c:	69 c0 59 2a 00 00    	imul   $0x2a59,%eax,%eax
  401522:	89 44 24 0c          	mov    %eax,0xc(%rsp)
  401526:	8b 44 24 18          	mov    0x18(%rsp),%eax
  40152a:	69 c0 0d 0a 00 00    	imul   $0xa0d,%eax,%eax
  401530:	89 44 24 18          	mov    %eax,0x18(%rsp)
  401534:	8b 44 24 10          	mov    0x10(%rsp),%eax
  401538:	69 c0 b2 27 00 00    	imul   $0x27b2,%eax,%eax
  40153e:	89 44 24 10          	mov    %eax,0x10(%rsp)
  401542:	8b 44 24 24          	mov    0x24(%rsp),%eax
  401546:	69 c0 15 49 00 00    	imul   $0x4915,%eax,%eax
  40154c:	89 44 24 24          	mov    %eax,0x24(%rsp)
  401550:	8b 44 24 08          	mov    0x8(%rsp),%eax
  401554:	69 c0 36 38 00 00    	imul   $0x3836,%eax,%eax
  40155a:	89 44 24 08          	mov    %eax,0x8(%rsp)
  40155e:	8b 44 24 18          	mov    0x18(%rsp),%eax
  401562:	69 c0 70 9a 00 00    	imul   $0x9a70,%eax,%eax
  401568:	89 44 24 18          	mov    %eax,0x18(%rsp)
  40156c:	8b 44 24 04          	mov    0x4(%rsp),%eax
  401570:	69 c0 f3 01 00 00    	imul   $0x1f3,%eax,%eax
  401576:	89 44 24 04          	mov    %eax,0x4(%rsp)
  40157a:	8b 44 24 10          	mov    0x10(%rsp),%eax
  40157e:	69 c0 3a 68 00 00    	imul   $0x683a,%eax,%eax
  401584:	89 44 24 10          	mov    %eax,0x10(%rsp)
  401588:	8b 44 24 1c          	mov    0x1c(%rsp),%eax
  40158c:	69 c0 3f 11 00 00    	imul   $0x113f,%eax,%eax
  401592:	89 44 24 1c          	mov    %eax,0x1c(%rsp)
  401596:	8b 04 24             	mov    (%rsp),%eax
  401599:	69 c0 ce 93 00 00    	imul   $0x93ce,%eax,%eax
  40159f:	89 04 24             	mov    %eax,(%rsp)
  4015a2:	8b 04 24             	mov    (%rsp),%eax
  4015a5:	69 c0 a6 4f 00 00    	imul   $0x4fa6,%eax,%eax
  4015ab:	89 04 24             	mov    %eax,(%rsp)
  4015ae:	8b 44 24 10          	mov    0x10(%rsp),%eax
  4015b2:	69 c0 02 e2 00 00    	imul   $0xe202,%eax,%eax
  4015b8:	89 44 24 10          	mov    %eax,0x10(%rsp)
  4015bc:	8b 44 24 04          	mov    0x4(%rsp),%eax
  4015c0:	69 c0 ac 7b 00 00    	imul   $0x7bac,%eax,%eax
  4015c6:	89 44 24 04          	mov    %eax,0x4(%rsp)
  4015ca:	8b 44 24 14          	mov    0x14(%rsp),%eax
  4015ce:	69 c0 21 41 00 00    	imul   $0x4121,%eax,%eax
  4015d4:	89 44 24 14          	mov    %eax,0x14(%rsp)
  4015d8:	8b 44 24 0c          	mov    0xc(%rsp),%eax
  4015dc:	69 c0 bd c7 00 00    	imul   $0xc7bd,%eax,%eax
  4015e2:	89 44 24 0c          	mov    %eax,0xc(%rsp)
  4015e6:	8b 04 24             	mov    (%rsp),%eax
  4015e9:	69 c0 d3 ed 00 00    	imul   $0xedd3,%eax,%eax
  4015ef:	89 04 24             	mov    %eax,(%rsp)
  4015f2:	8b 44 24 18          	mov    0x18(%rsp),%eax
  4015f6:	69 c0 e2 8c 00 00    	imul   $0x8ce2,%eax,%eax
  4015fc:	89 44 24 18          	mov    %eax,0x18(%rsp)
  401600:	8b 44 24 10          	mov    0x10(%rsp),%eax
  401604:	69 c0 f1 a2 00 00    	imul   $0xa2f1,%eax,%eax
  40160a:	89 44 24 10          	mov    %eax,0x10(%rsp)
  40160e:	8b 44 24 18          	mov    0x18(%rsp),%eax
  401612:	69 c0 86 ca 00 00    	imul   $0xca86,%eax,%eax
  401618:	89 44 24 18          	mov    %eax,0x18(%rsp)
  40161c:	8b 44 24 08          	mov    0x8(%rsp),%eax
  401620:	69 c0 f3 7a 00 00    	imul   $0x7af3,%eax,%eax
  401626:	89 44 24 08          	mov    %eax,0x8(%rsp)
  40162a:	8b 44 24 14          	mov    0x14(%rsp),%eax
  40162e:	69 c0 ca b9 00 00    	imul   $0xb9ca,%eax,%eax
  401634:	89 44 24 14          	mov    %eax,0x14(%rsp)
  401638:	8b 44 24 0c          	mov    0xc(%rsp),%eax
  40163c:	69 c0 8a d9 00 00    	imul   $0xd98a,%eax,%eax
  401642:	89 44 24 0c          	mov    %eax,0xc(%rsp)
  401646:	8b 44 24 08          	mov    0x8(%rsp),%eax
  40164a:	69 c0 da 3c 00 00    	imul   $0x3cda,%eax,%eax
  401650:	89 44 24 08          	mov    %eax,0x8(%rsp)
  401654:	8b 04 24             	mov    (%rsp),%eax
  401657:	69 c0 75 7f 00 00    	imul   $0x7f75,%eax,%eax
  40165d:	89 04 24             	mov    %eax,(%rsp)
  401660:	8b 44 24 1c          	mov    0x1c(%rsp),%eax
  401664:	69 c0 80 cb 00 00    	imul   $0xcb80,%eax,%eax
  40166a:	89 44 24 1c          	mov    %eax,0x1c(%rsp)
  40166e:	8b 44 24 10          	mov    0x10(%rsp),%eax
  401672:	69 c0 50 33 00 00    	imul   $0x3350,%eax,%eax
  401678:	89 44 24 10          	mov    %eax,0x10(%rsp)
  40167c:	8b 44 24 10          	mov    0x10(%rsp),%eax
  401680:	69 c0 e5 86 00 00    	imul   $0x86e5,%eax,%eax
  401686:	89 44 24 10          	mov    %eax,0x10(%rsp)
  40168a:	8b 44 24 14          	mov    0x14(%rsp),%eax
  40168e:	69 c0 de 14 00 00    	imul   $0x14de,%eax,%eax
  401694:	89 44 24 14          	mov    %eax,0x14(%rsp)
  401698:	8b 44 24 24          	mov    0x24(%rsp),%eax
  40169c:	69 c0 69 e0 00 00    	imul   $0xe069,%eax,%eax
  4016a2:	89 44 24 24          	mov    %eax,0x24(%rsp)
  4016a6:	8b 44 24 10          	mov    0x10(%rsp),%eax
  4016aa:	69 c0 1b e5 00 00    	imul   $0xe51b,%eax,%eax
  4016b0:	89 44 24 10          	mov    %eax,0x10(%rsp)
  4016b4:	8b 44 24 08          	mov    0x8(%rsp),%eax
  4016b8:	69 c0 5a bf 00 00    	imul   $0xbf5a,%eax,%eax
  4016be:	89 44 24 08          	mov    %eax,0x8(%rsp)
  4016c2:	8b 44 24 20          	mov    0x20(%rsp),%eax
  4016c6:	69 c0 3d 9a 00 00    	imul   $0x9a3d,%eax,%eax
  4016cc:	89 44 24 20          	mov    %eax,0x20(%rsp)
  4016d0:	8b 44 24 10          	mov    0x10(%rsp),%eax
  4016d4:	69 c0 ce ca 00 00    	imul   $0xcace,%eax,%eax
  4016da:	89 44 24 10          	mov    %eax,0x10(%rsp)
  4016de:	8b 04 24             	mov    (%rsp),%eax
  4016e1:	69 c0 d1 00 00 00    	imul   $0xd1,%eax,%eax
  4016e7:	89 04 24             	mov    %eax,(%rsp)
  4016ea:	8b 44 24 08          	mov    0x8(%rsp),%eax
  4016ee:	69 c0 34 29 00 00    	imul   $0x2934,%eax,%eax
  4016f4:	89 44 24 08          	mov    %eax,0x8(%rsp)
  4016f8:	8b 04 24             	mov    (%rsp),%eax
  4016fb:	69 c0 10 98 00 00    	imul   $0x9810,%eax,%eax
  401701:	89 04 24             	mov    %eax,(%rsp)
  401704:	8b 44 24 0c          	mov    0xc(%rsp),%eax
  401708:	69 c0 28 91 00 00    	imul   $0x9128,%eax,%eax
  40170e:	89 44 24 0c          	mov    %eax,0xc(%rsp)
  401712:	8b 44 24 18          	mov    0x18(%rsp),%eax
  401716:	69 c0 bc 9e 00 00    	imul   $0x9ebc,%eax,%eax
  40171c:	89 44 24 18          	mov    %eax,0x18(%rsp)
  401720:	8b 44 24 0c          	mov    0xc(%rsp),%eax
  401724:	69 c0 5f b3 00 00    	imul   $0xb35f,%eax,%eax
  40172a:	89 44 24 0c          	mov    %eax,0xc(%rsp)
  40172e:	8b 44 24 1c          	mov    0x1c(%rsp),%eax
  401732:	69 c0 1c 1c 00 00    	imul   $0x1c1c,%eax,%eax
  401738:	89 44 24 1c          	mov    %eax,0x1c(%rsp)
  40173c:	8b 44 24 24          	mov    0x24(%rsp),%eax
  401740:	69 c0 75 31 00 00    	imul   $0x3175,%eax,%eax
  401746:	89 44 24 24          	mov    %eax,0x24(%rsp)
  40174a:	8b 44 24 08          	mov    0x8(%rsp),%eax
  40174e:	69 c0 05 9a 00 00    	imul   $0x9a05,%eax,%eax
  401754:	89 44 24 08          	mov    %eax,0x8(%rsp)
  401758:	8b 44 24 24          	mov    0x24(%rsp),%eax
  40175c:	69 c0 bf 64 00 00    	imul   $0x64bf,%eax,%eax
  401762:	89 44 24 24          	mov    %eax,0x24(%rsp)
  401766:	8b 44 24 04          	mov    0x4(%rsp),%eax
  40176a:	69 c0 ec ba 00 00    	imul   $0xbaec,%eax,%eax
  401770:	89 44 24 04          	mov    %eax,0x4(%rsp)
  401774:	8b 44 24 0c          	mov    0xc(%rsp),%eax
  401778:	69 c0 e3 04 00 00    	imul   $0x4e3,%eax,%eax
  40177e:	89 44 24 0c          	mov    %eax,0xc(%rsp)
  401782:	8b 44 24 14          	mov    0x14(%rsp),%eax
  401786:	69 c0 4f ed 00 00    	imul   $0xed4f,%eax,%eax
  40178c:	89 44 24 14          	mov    %eax,0x14(%rsp)
  401790:	8b 44 24 08          	mov    0x8(%rsp),%eax
  401794:	69 c0 f5 72 00 00    	imul   $0x72f5,%eax,%eax
  40179a:	89 44 24 08          	mov    %eax,0x8(%rsp)
  40179e:	8b 44 24 14          	mov    0x14(%rsp),%eax
  4017a2:	69 c0 7a 10 00 00    	imul   $0x107a,%eax,%eax
  4017a8:	89 44 24 14          	mov    %eax,0x14(%rsp)
  4017ac:	8b 44 24 04          	mov    0x4(%rsp),%eax
  4017b0:	69 c0 ba c4 00 00    	imul   $0xc4ba,%eax,%eax
  4017b6:	89 44 24 04          	mov    %eax,0x4(%rsp)
  4017ba:	8b 44 24 20          	mov    0x20(%rsp),%eax
  4017be:	69 c0 17 d3 00 00    	imul   $0xd317,%eax,%eax
  4017c4:	89 44 24 20          	mov    %eax,0x20(%rsp)
  4017c8:	8b 44 24 04          	mov    0x4(%rsp),%eax
  4017cc:	69 c0 0f 8d 00 00    	imul   $0x8d0f,%eax,%eax
  4017d2:	89 44 24 04          	mov    %eax,0x4(%rsp)
  4017d6:	8b 44 24 0c          	mov    0xc(%rsp),%eax
  4017da:	69 c0 ed d0 00 00    	imul   $0xd0ed,%eax,%eax
  4017e0:	89 44 24 0c          	mov    %eax,0xc(%rsp)
  4017e4:	8b 44 24 24          	mov    0x24(%rsp),%eax
  4017e8:	69 c0 c2 dc 00 00    	imul   $0xdcc2,%eax,%eax
  4017ee:	89 44 24 24          	mov    %eax,0x24(%rsp)
  4017f2:	8b 44 24 08          	mov    0x8(%rsp),%eax
  4017f6:	69 c0 3a ec 00 00    	imul   $0xec3a,%eax,%eax
  4017fc:	89 44 24 08          	mov    %eax,0x8(%rsp)
  401800:	8b 04 24             	mov    (%rsp),%eax
  401803:	69 c0 da 8d 00 00    	imul   $0x8dda,%eax,%eax
  401809:	89 04 24             	mov    %eax,(%rsp)
  40180c:	8b 44 24 1c          	mov    0x1c(%rsp),%eax
  401810:	69 c0 01 0f 00 00    	imul   $0xf01,%eax,%eax
  401816:	89 44 24 1c          	mov    %eax,0x1c(%rsp)
  40181a:	ba 00 00 00 00       	mov    $0x0,%edx
  40181f:	b8 00 00 00 00       	mov    $0x0,%eax
  401824:	eb 0a                	jmp    401830 <scramble+0x4f1>
  401826:	89 d1                	mov    %edx,%ecx
  401828:	8b 0c 8c             	mov    (%rsp,%rcx,4),%ecx
  40182b:	01 c8                	add    %ecx,%eax
  40182d:	83 c2 01             	add    $0x1,%edx
  401830:	83 fa 09             	cmp    $0x9,%edx
  401833:	76 f1                	jbe    401826 <scramble+0x4e7>
  401835:	48 8b 74 24 28       	mov    0x28(%rsp),%rsi
  40183a:	64 48 33 34 25 28 00 	xor    %fs:0x28,%rsi
  401841:	00 00 
  401843:	75 05                	jne    40184a <scramble+0x50b>
  401845:	48 83 c4 38          	add    $0x38,%rsp
  401849:	c3                   	retq   
  40184a:	e8 91 f4 ff ff       	callq  400ce0 <__stack_chk_fail@plt>

000000000040184f <getbuf>:
  40184f:	48 83 ec 28          	sub    $0x28,%rsp
  401853:	48 89 e7             	mov    %rsp,%rdi
  401856:	e8 9f 03 00 00       	callq  401bfa <Gets>
  40185b:	b8 01 00 00 00       	mov    $0x1,%eax
  401860:	48 83 c4 28          	add    $0x28,%rsp
  401864:	c3                   	retq   

0000000000401865 <touch1>:
  401865:	48 83 ec 08          	sub    $0x8,%rsp
  401869:	c7 05 89 3c 20 00 01 	movl   $0x1,0x203c89(%rip)        # 6054fc <vlevel>
  401870:	00 00 00 
  401873:	bf ea 32 40 00       	mov    $0x4032ea,%edi
  401878:	e8 43 f4 ff ff       	callq  400cc0 <puts@plt>
  40187d:	bf 01 00 00 00       	mov    $0x1,%edi
  401882:	e8 c8 05 00 00       	callq  401e4f <validate>
  401887:	bf 00 00 00 00       	mov    $0x0,%edi
  40188c:	e8 9f f5 ff ff       	callq  400e30 <exit@plt>

0000000000401891 <touch2>:
  401891:	48 83 ec 08          	sub    $0x8,%rsp
  401895:	89 fa                	mov    %edi,%edx
  401897:	c7 05 5b 3c 20 00 02 	movl   $0x2,0x203c5b(%rip)        # 6054fc <vlevel>
  40189e:	00 00 00 
  4018a1:	39 3d 5d 3c 20 00    	cmp    %edi,0x203c5d(%rip)        # 605504 <cookie>
  4018a7:	74 28                	je     4018d1 <touch2+0x40>
  4018a9:	be 38 33 40 00       	mov    $0x403338,%esi
  4018ae:	bf 01 00 00 00       	mov    $0x1,%edi
  4018b3:	b8 00 00 00 00       	mov    $0x0,%eax
  4018b8:	e8 23 f5 ff ff       	callq  400de0 <__printf_chk@plt>
  4018bd:	bf 02 00 00 00       	mov    $0x2,%edi
  4018c2:	e8 4d 06 00 00       	callq  401f14 <fail>
  4018c7:	bf 00 00 00 00       	mov    $0x0,%edi
  4018cc:	e8 5f f5 ff ff       	callq  400e30 <exit@plt>
  4018d1:	be 10 33 40 00       	mov    $0x403310,%esi
  4018d6:	bf 01 00 00 00       	mov    $0x1,%edi
  4018db:	b8 00 00 00 00       	mov    $0x0,%eax
  4018e0:	e8 fb f4 ff ff       	callq  400de0 <__printf_chk@plt>
  4018e5:	bf 02 00 00 00       	mov    $0x2,%edi
  4018ea:	e8 60 05 00 00       	callq  401e4f <validate>
  4018ef:	eb d6                	jmp    4018c7 <touch2+0x36>

00000000004018f1 <hexmatch>:
  4018f1:	41 54                	push   %r12
  4018f3:	55                   	push   %rbp
  4018f4:	53                   	push   %rbx
  4018f5:	48 83 c4 80          	add    $0xffffffffffffff80,%rsp
  4018f9:	89 fd                	mov    %edi,%ebp
  4018fb:	48 89 f3             	mov    %rsi,%rbx
  4018fe:	64 48 8b 04 25 28 00 	mov    %fs:0x28,%rax
  401905:	00 00 
  401907:	48 89 44 24 78       	mov    %rax,0x78(%rsp)
  40190c:	31 c0                	xor    %eax,%eax
  40190e:	e8 8d f4 ff ff       	callq  400da0 <random@plt>
  401913:	48 89 c1             	mov    %rax,%rcx
  401916:	48 ba 0b d7 a3 70 3d 	movabs $0xa3d70a3d70a3d70b,%rdx
  40191d:	0a d7 a3 
  401920:	48 f7 ea             	imul   %rdx
  401923:	48 01 ca             	add    %rcx,%rdx
  401926:	48 c1 fa 06          	sar    $0x6,%rdx
  40192a:	48 89 c8             	mov    %rcx,%rax
  40192d:	48 c1 f8 3f          	sar    $0x3f,%rax
  401931:	48 29 c2             	sub    %rax,%rdx
  401934:	48 8d 04 92          	lea    (%rdx,%rdx,4),%rax
  401938:	48 8d 14 80          	lea    (%rax,%rax,4),%rdx
  40193c:	48 8d 04 95 00 00 00 	lea    0x0(,%rdx,4),%rax
  401943:	00 
  401944:	48 29 c1             	sub    %rax,%rcx
  401947:	4c 8d 24 0c          	lea    (%rsp,%rcx,1),%r12
  40194b:	41 89 e8             	mov    %ebp,%r8d
  40194e:	b9 07 33 40 00       	mov    $0x403307,%ecx
  401953:	48 c7 c2 ff ff ff ff 	mov    $0xffffffffffffffff,%rdx
  40195a:	be 01 00 00 00       	mov    $0x1,%esi
  40195f:	4c 89 e7             	mov    %r12,%rdi
  401962:	b8 00 00 00 00       	mov    $0x0,%eax
  401967:	e8 f4 f4 ff ff       	callq  400e60 <__sprintf_chk@plt>
  40196c:	ba 09 00 00 00       	mov    $0x9,%edx
  401971:	4c 89 e6             	mov    %r12,%rsi
  401974:	48 89 df             	mov    %rbx,%rdi
  401977:	e8 24 f3 ff ff       	callq  400ca0 <strncmp@plt>
  40197c:	85 c0                	test   %eax,%eax
  40197e:	0f 94 c0             	sete   %al
  401981:	48 8b 5c 24 78       	mov    0x78(%rsp),%rbx
  401986:	64 48 33 1c 25 28 00 	xor    %fs:0x28,%rbx
  40198d:	00 00 
  40198f:	75 0c                	jne    40199d <hexmatch+0xac>
  401991:	0f b6 c0             	movzbl %al,%eax
  401994:	48 83 ec 80          	sub    $0xffffffffffffff80,%rsp
  401998:	5b                   	pop    %rbx
  401999:	5d                   	pop    %rbp
  40199a:	41 5c                	pop    %r12
  40199c:	c3                   	retq   
  40199d:	e8 3e f3 ff ff       	callq  400ce0 <__stack_chk_fail@plt>

00000000004019a2 <touch3>:
  4019a2:	53                   	push   %rbx
  4019a3:	48 89 fb             	mov    %rdi,%rbx
  4019a6:	c7 05 4c 3b 20 00 03 	movl   $0x3,0x203b4c(%rip)        # 6054fc <vlevel>
  4019ad:	00 00 00 
  4019b0:	48 89 fe             	mov    %rdi,%rsi
  4019b3:	8b 3d 4b 3b 20 00    	mov    0x203b4b(%rip),%edi        # 605504 <cookie>
  4019b9:	e8 33 ff ff ff       	callq  4018f1 <hexmatch>
  4019be:	85 c0                	test   %eax,%eax
  4019c0:	74 2b                	je     4019ed <touch3+0x4b>
  4019c2:	48 89 da             	mov    %rbx,%rdx
  4019c5:	be 60 33 40 00       	mov    $0x403360,%esi
  4019ca:	bf 01 00 00 00       	mov    $0x1,%edi
  4019cf:	b8 00 00 00 00       	mov    $0x0,%eax
  4019d4:	e8 07 f4 ff ff       	callq  400de0 <__printf_chk@plt>
  4019d9:	bf 03 00 00 00       	mov    $0x3,%edi
  4019de:	e8 6c 04 00 00       	callq  401e4f <validate>
  4019e3:	bf 00 00 00 00       	mov    $0x0,%edi
  4019e8:	e8 43 f4 ff ff       	callq  400e30 <exit@plt>
  4019ed:	48 89 da             	mov    %rbx,%rdx
  4019f0:	be 88 33 40 00       	mov    $0x403388,%esi
  4019f5:	bf 01 00 00 00       	mov    $0x1,%edi
  4019fa:	b8 00 00 00 00       	mov    $0x0,%eax
  4019ff:	e8 dc f3 ff ff       	callq  400de0 <__printf_chk@plt>
  401a04:	bf 03 00 00 00       	mov    $0x3,%edi
  401a09:	e8 06 05 00 00       	callq  401f14 <fail>
  401a0e:	eb d3                	jmp    4019e3 <touch3+0x41>

0000000000401a10 <test>:
  401a10:	48 83 ec 08          	sub    $0x8,%rsp
  401a14:	b8 00 00 00 00       	mov    $0x0,%eax
  401a19:	e8 31 fe ff ff       	callq  40184f <getbuf>
  401a1e:	89 c2                	mov    %eax,%edx
  401a20:	be b0 33 40 00       	mov    $0x4033b0,%esi
  401a25:	bf 01 00 00 00       	mov    $0x1,%edi
  401a2a:	b8 00 00 00 00       	mov    $0x0,%eax
  401a2f:	e8 ac f3 ff ff       	callq  400de0 <__printf_chk@plt>
  401a34:	48 83 c4 08          	add    $0x8,%rsp
  401a38:	c3                   	retq   

0000000000401a39 <start_farm>:
  401a39:	b8 01 00 00 00       	mov    $0x1,%eax
  401a3e:	c3                   	retq   

0000000000401a3f <setval_407>:
  401a3f:	c7 07 58 90 90 c3    	movl   $0xc3909058,(%rdi)
  401a45:	c3                   	retq   

0000000000401a46 <addval_453>:
  401a46:	8d 87 48 89 c7 90    	lea    -0x6f3876b8(%rdi),%eax
  401a4c:	c3                   	retq   

0000000000401a4d <getval_397>:
  401a4d:	b8 58 90 90 90       	mov    $0x90909058,%eax
  401a52:	c3                   	retq   

0000000000401a53 <getval_129>:
  401a53:	b8 49 89 c7 c3       	mov    $0xc3c78949,%eax
  401a58:	c3                   	retq   

0000000000401a59 <addval_398>:
  401a59:	8d 87 48 89 c7 c1    	lea    -0x3e3876b8(%rdi),%eax
  401a5f:	c3                   	retq   

0000000000401a60 <setval_200>:
  401a60:	c7 07 b8 a9 58 92    	movl   $0x9258a9b8,(%rdi)
  401a66:	c3                   	retq   

0000000000401a67 <getval_445>:
  401a67:	b8 60 48 89 c7       	mov    $0xc7894860,%eax
  401a6c:	c3                   	retq   

0000000000401a6d <addval_113>:
  401a6d:	8d 87 50 58 94 90    	lea    -0x6f6ba7b0(%rdi),%eax
  401a73:	c3                   	retq   

0000000000401a74 <mid_farm>:
  401a74:	b8 01 00 00 00       	mov    $0x1,%eax
  401a79:	c3                   	retq   

0000000000401a7a <add_xy>:
  401a7a:	48 8d 04 37          	lea    (%rdi,%rsi,1),%rax
  401a7e:	c3                   	retq   

0000000000401a7f <setval_417>:
  401a7f:	c7 07 68 89 e0 c3    	movl   $0xc3e08968,(%rdi)
  401a85:	c3                   	retq   

0000000000401a86 <getval_478>:
  401a86:	b8 99 ce c3 8f       	mov    $0x8fc3ce99,%eax
  401a8b:	c3                   	retq   

0000000000401a8c <addval_216>:
  401a8c:	8d 87 48 89 e0 c2    	lea    -0x3d1f76b8(%rdi),%eax
  401a92:	c3                   	retq   

0000000000401a93 <addval_376>:
  401a93:	8d 87 8d ce 84 c0    	lea    -0x3f7b3173(%rdi),%eax
  401a99:	c3                   	retq   

0000000000401a9a <getval_111>:
  401a9a:	b8 99 d1 20 c0       	mov    $0xc020d199,%eax
  401a9f:	c3                   	retq   

0000000000401aa0 <getval_104>:
  401aa0:	b8 89 ce 90 c3       	mov    $0xc390ce89,%eax
  401aa5:	c3                   	retq   

0000000000401aa6 <getval_117>:
  401aa6:	b8 48 89 e0 c7       	mov    $0xc7e08948,%eax
  401aab:	c3                   	retq   

0000000000401aac <getval_315>:
  401aac:	b8 88 ce 08 c9       	mov    $0xc908ce88,%eax
  401ab1:	c3                   	retq   

0000000000401ab2 <addval_155>:
  401ab2:	8d 87 89 c2 28 c0    	lea    -0x3fd73d77(%rdi),%eax
  401ab8:	c3                   	retq   

0000000000401ab9 <addval_432>:
  401ab9:	8d 87 48 89 e0 92    	lea    -0x6d1f76b8(%rdi),%eax
  401abf:	c3                   	retq   

0000000000401ac0 <getval_330>:
  401ac0:	b8 48 88 e0 c3       	mov    $0xc3e08848,%eax
  401ac5:	c3                   	retq   

0000000000401ac6 <addval_152>:
  401ac6:	8d 87 89 c2 38 c0    	lea    -0x3fc73d77(%rdi),%eax
  401acc:	c3                   	retq   

0000000000401acd <setval_312>:
  401acd:	c7 07 89 c2 a4 c0    	movl   $0xc0a4c289,(%rdi)
  401ad3:	c3                   	retq   

0000000000401ad4 <addval_480>:
  401ad4:	8d 87 8d d1 90 c3    	lea    -0x3c6f2e73(%rdi),%eax
  401ada:	c3                   	retq   

0000000000401adb <getval_427>:
  401adb:	b8 48 89 e0 90       	mov    $0x90e08948,%eax
  401ae0:	c3                   	retq   

0000000000401ae1 <addval_218>:
  401ae1:	8d 87 89 d1 20 db    	lea    -0x24df2e77(%rdi),%eax
  401ae7:	c3                   	retq   

0000000000401ae8 <setval_295>:
  401ae8:	c7 07 89 ce 18 c9    	movl   $0xc918ce89,(%rdi)
  401aee:	c3                   	retq   

0000000000401aef <getval_422>:
  401aef:	b8 48 89 e0 c3       	mov    $0xc3e08948,%eax
  401af4:	c3                   	retq   

0000000000401af5 <setval_347>:
  401af5:	c7 07 89 c2 00 db    	movl   $0xdb00c289,(%rdi)
  401afb:	c3                   	retq   

0000000000401afc <setval_271>:
  401afc:	c7 07 89 ce 84 d2    	movl   $0xd284ce89,(%rdi)
  401b02:	c3                   	retq   

0000000000401b03 <getval_321>:
  401b03:	b8 89 d1 92 90       	mov    $0x9092d189,%eax
  401b08:	c3                   	retq   

0000000000401b09 <getval_291>:
  401b09:	b8 99 d1 90 90       	mov    $0x9090d199,%eax
  401b0e:	c3                   	retq   

0000000000401b0f <addval_384>:
  401b0f:	8d 87 99 ce 84 c0    	lea    -0x3f7b3167(%rdi),%eax
  401b15:	c3                   	retq   

0000000000401b16 <addval_225>:
  401b16:	8d 87 89 d1 c3 83    	lea    -0x7c3c2e77(%rdi),%eax
  401b1c:	c3                   	retq   

0000000000401b1d <addval_272>:
  401b1d:	8d 87 89 c2 38 c9    	lea    -0x36c73d77(%rdi),%eax
  401b23:	c3                   	retq   

0000000000401b24 <addval_264>:
  401b24:	8d 87 88 d1 38 c9    	lea    -0x36c72e78(%rdi),%eax
  401b2a:	c3                   	retq   

0000000000401b2b <addval_448>:
  401b2b:	8d 87 89 c2 30 c9    	lea    -0x36cf3d77(%rdi),%eax
  401b31:	c3                   	retq   

0000000000401b32 <getval_380>:
  401b32:	b8 88 d1 38 d2       	mov    $0xd238d188,%eax
  401b37:	c3                   	retq   

0000000000401b38 <addval_389>:
  401b38:	8d 87 89 c2 78 db    	lea    -0x24873d77(%rdi),%eax
  401b3e:	c3                   	retq   

0000000000401b3f <setval_461>:
  401b3f:	c7 07 48 89 e0 c2    	movl   $0xc2e08948,(%rdi)
  401b45:	c3                   	retq   

0000000000401b46 <setval_177>:
  401b46:	c7 07 88 c2 08 c9    	movl   $0xc908c288,(%rdi)
  401b4c:	c3                   	retq   

0000000000401b4d <setval_474>:
  401b4d:	c7 07 89 ce 18 db    	movl   $0xdb18ce89,(%rdi)
  401b53:	c3                   	retq   

0000000000401b54 <end_farm>:
  401b54:	b8 01 00 00 00       	mov    $0x1,%eax
  401b59:	c3                   	retq   

0000000000401b5a <save_char>:
  401b5a:	8b 05 c4 45 20 00    	mov    0x2045c4(%rip),%eax        # 606124 <gets_cnt>
  401b60:	3d ff 03 00 00       	cmp    $0x3ff,%eax
  401b65:	7f 49                	jg     401bb0 <save_char+0x56>
  401b67:	89 f9                	mov    %edi,%ecx
  401b69:	c0 e9 04             	shr    $0x4,%cl
  401b6c:	8d 14 40             	lea    (%rax,%rax,2),%edx
  401b6f:	83 e1 0f             	and    $0xf,%ecx
  401b72:	0f b6 b1 d0 36 40 00 	movzbl 0x4036d0(%rcx),%esi
  401b79:	48 63 ca             	movslq %edx,%rcx
  401b7c:	40 88 b1 20 55 60 00 	mov    %sil,0x605520(%rcx)
  401b83:	8d 4a 01             	lea    0x1(%rdx),%ecx
  401b86:	83 e7 0f             	and    $0xf,%edi
  401b89:	0f b6 b7 d0 36 40 00 	movzbl 0x4036d0(%rdi),%esi
  401b90:	48 63 c9             	movslq %ecx,%rcx
  401b93:	40 88 b1 20 55 60 00 	mov    %sil,0x605520(%rcx)
  401b9a:	83 c2 02             	add    $0x2,%edx
  401b9d:	48 63 d2             	movslq %edx,%rdx
  401ba0:	c6 82 20 55 60 00 20 	movb   $0x20,0x605520(%rdx)
  401ba7:	83 c0 01             	add    $0x1,%eax
  401baa:	89 05 74 45 20 00    	mov    %eax,0x204574(%rip)        # 606124 <gets_cnt>
  401bb0:	f3 c3                	repz retq 

0000000000401bb2 <save_term>:
  401bb2:	8b 05 6c 45 20 00    	mov    0x20456c(%rip),%eax        # 606124 <gets_cnt>
  401bb8:	8d 04 40             	lea    (%rax,%rax,2),%eax
  401bbb:	48 98                	cltq   
  401bbd:	c6 80 20 55 60 00 00 	movb   $0x0,0x605520(%rax)
  401bc4:	c3                   	retq   

0000000000401bc5 <check_fail>:
  401bc5:	48 83 ec 08          	sub    $0x8,%rsp
  401bc9:	0f be 15 58 45 20 00 	movsbl 0x204558(%rip),%edx        # 606128 <target_prefix>
  401bd0:	41 b8 20 55 60 00    	mov    $0x605520,%r8d
  401bd6:	8b 0d 1c 39 20 00    	mov    0x20391c(%rip),%ecx        # 6054f8 <check_level>
  401bdc:	be d3 33 40 00       	mov    $0x4033d3,%esi
  401be1:	bf 01 00 00 00       	mov    $0x1,%edi
  401be6:	b8 00 00 00 00       	mov    $0x0,%eax
  401beb:	e8 f0 f1 ff ff       	callq  400de0 <__printf_chk@plt>
  401bf0:	bf 01 00 00 00       	mov    $0x1,%edi
  401bf5:	e8 36 f2 ff ff       	callq  400e30 <exit@plt>

0000000000401bfa <Gets>:
  401bfa:	41 54                	push   %r12
  401bfc:	55                   	push   %rbp
  401bfd:	53                   	push   %rbx
  401bfe:	49 89 fc             	mov    %rdi,%r12
  401c01:	c7 05 19 45 20 00 00 	movl   $0x0,0x204519(%rip)        # 606124 <gets_cnt>
  401c08:	00 00 00 
  401c0b:	48 89 fb             	mov    %rdi,%rbx
  401c0e:	eb 11                	jmp    401c21 <Gets+0x27>
  401c10:	48 8d 6b 01          	lea    0x1(%rbx),%rbp
  401c14:	88 03                	mov    %al,(%rbx)
  401c16:	0f b6 f8             	movzbl %al,%edi
  401c19:	e8 3c ff ff ff       	callq  401b5a <save_char>
  401c1e:	48 89 eb             	mov    %rbp,%rbx
  401c21:	48 8b 3d c8 38 20 00 	mov    0x2038c8(%rip),%rdi        # 6054f0 <infile>
  401c28:	e8 83 f1 ff ff       	callq  400db0 <_IO_getc@plt>
  401c2d:	83 f8 ff             	cmp    $0xffffffff,%eax
  401c30:	74 05                	je     401c37 <Gets+0x3d>
  401c32:	83 f8 0a             	cmp    $0xa,%eax
  401c35:	75 d9                	jne    401c10 <Gets+0x16>
  401c37:	c6 03 00             	movb   $0x0,(%rbx)
  401c3a:	b8 00 00 00 00       	mov    $0x0,%eax
  401c3f:	e8 6e ff ff ff       	callq  401bb2 <save_term>
  401c44:	4c 89 e0             	mov    %r12,%rax
  401c47:	5b                   	pop    %rbx
  401c48:	5d                   	pop    %rbp
  401c49:	41 5c                	pop    %r12
  401c4b:	c3                   	retq   

0000000000401c4c <notify_server>:
  401c4c:	55                   	push   %rbp
  401c4d:	53                   	push   %rbx
  401c4e:	48 81 ec 18 40 00 00 	sub    $0x4018,%rsp
  401c55:	64 48 8b 04 25 28 00 	mov    %fs:0x28,%rax
  401c5c:	00 00 
  401c5e:	48 89 84 24 08 40 00 	mov    %rax,0x4008(%rsp)
  401c65:	00 
  401c66:	31 c0                	xor    %eax,%eax
  401c68:	83 3d 99 38 20 00 00 	cmpl   $0x0,0x203899(%rip)        # 605508 <is_checker>
  401c6f:	0f 85 c9 00 00 00    	jne    401d3e <notify_server+0xf2>
  401c75:	89 fb                	mov    %edi,%ebx
  401c77:	8b 05 a7 44 20 00    	mov    0x2044a7(%rip),%eax        # 606124 <gets_cnt>
  401c7d:	83 c0 64             	add    $0x64,%eax
  401c80:	3d 00 20 00 00       	cmp    $0x2000,%eax
  401c85:	0f 8f d4 00 00 00    	jg     401d5f <notify_server+0x113>
  401c8b:	0f be 05 96 44 20 00 	movsbl 0x204496(%rip),%eax        # 606128 <target_prefix>
  401c92:	83 3d ef 37 20 00 00 	cmpl   $0x0,0x2037ef(%rip)        # 605488 <notify>
  401c99:	0f 84 de 00 00 00    	je     401d7d <notify_server+0x131>
  401c9f:	8b 15 5b 38 20 00    	mov    0x20385b(%rip),%edx        # 605500 <authkey>
  401ca5:	85 db                	test   %ebx,%ebx
  401ca7:	0f 84 da 00 00 00    	je     401d87 <notify_server+0x13b>
  401cad:	bd e9 33 40 00       	mov    $0x4033e9,%ebp
  401cb2:	68 20 55 60 00       	pushq  $0x605520
  401cb7:	56                   	push   %rsi
  401cb8:	50                   	push   %rax
  401cb9:	52                   	push   %rdx
  401cba:	49 89 e9             	mov    %rbp,%r9
  401cbd:	44 8b 05 84 34 20 00 	mov    0x203484(%rip),%r8d        # 605148 <target_id>
  401cc4:	b9 f3 33 40 00       	mov    $0x4033f3,%ecx
  401cc9:	ba 00 20 00 00       	mov    $0x2000,%edx
  401cce:	be 01 00 00 00       	mov    $0x1,%esi
  401cd3:	48 8d 7c 24 20       	lea    0x20(%rsp),%rdi
  401cd8:	b8 00 00 00 00       	mov    $0x0,%eax
  401cdd:	e8 7e f1 ff ff       	callq  400e60 <__sprintf_chk@plt>
  401ce2:	48 83 c4 20          	add    $0x20,%rsp
  401ce6:	83 3d 9b 37 20 00 00 	cmpl   $0x0,0x20379b(%rip)        # 605488 <notify>
  401ced:	0f 84 d3 00 00 00    	je     401dc6 <notify_server+0x17a>
  401cf3:	85 db                	test   %ebx,%ebx
  401cf5:	0f 84 bc 00 00 00    	je     401db7 <notify_server+0x16b>
  401cfb:	4c 8d 8c 24 00 20 00 	lea    0x2000(%rsp),%r9
  401d02:	00 
  401d03:	41 b8 00 00 00 00    	mov    $0x0,%r8d
  401d09:	48 89 e1             	mov    %rsp,%rcx
  401d0c:	48 8b 15 3d 34 20 00 	mov    0x20343d(%rip),%rdx        # 605150 <lab>
  401d13:	48 8b 35 3e 34 20 00 	mov    0x20343e(%rip),%rsi        # 605158 <course>
  401d1a:	48 8b 3d 1f 34 20 00 	mov    0x20341f(%rip),%rdi        # 605140 <user_id>
  401d21:	e8 31 11 00 00       	callq  402e57 <driver_post>
  401d26:	85 c0                	test   %eax,%eax
  401d28:	78 67                	js     401d91 <notify_server+0x145>
  401d2a:	bf 38 35 40 00       	mov    $0x403538,%edi
  401d2f:	e8 8c ef ff ff       	callq  400cc0 <puts@plt>
  401d34:	bf 1b 34 40 00       	mov    $0x40341b,%edi
  401d39:	e8 82 ef ff ff       	callq  400cc0 <puts@plt>
  401d3e:	48 8b 84 24 08 40 00 	mov    0x4008(%rsp),%rax
  401d45:	00 
  401d46:	64 48 33 04 25 28 00 	xor    %fs:0x28,%rax
  401d4d:	00 00 
  401d4f:	0f 85 f5 00 00 00    	jne    401e4a <notify_server+0x1fe>
  401d55:	48 81 c4 18 40 00 00 	add    $0x4018,%rsp
  401d5c:	5b                   	pop    %rbx
  401d5d:	5d                   	pop    %rbp
  401d5e:	c3                   	retq   
  401d5f:	be 08 35 40 00       	mov    $0x403508,%esi
  401d64:	bf 01 00 00 00       	mov    $0x1,%edi
  401d69:	b8 00 00 00 00       	mov    $0x0,%eax
  401d6e:	e8 6d f0 ff ff       	callq  400de0 <__printf_chk@plt>
  401d73:	bf 01 00 00 00       	mov    $0x1,%edi
  401d78:	e8 b3 f0 ff ff       	callq  400e30 <exit@plt>
  401d7d:	ba ff ff ff ff       	mov    $0xffffffff,%edx
  401d82:	e9 1e ff ff ff       	jmpq   401ca5 <notify_server+0x59>
  401d87:	bd ee 33 40 00       	mov    $0x4033ee,%ebp
  401d8c:	e9 21 ff ff ff       	jmpq   401cb2 <notify_server+0x66>
  401d91:	48 8d 94 24 00 20 00 	lea    0x2000(%rsp),%rdx
  401d98:	00 
  401d99:	be 0f 34 40 00       	mov    $0x40340f,%esi
  401d9e:	bf 01 00 00 00       	mov    $0x1,%edi
  401da3:	b8 00 00 00 00       	mov    $0x0,%eax
  401da8:	e8 33 f0 ff ff       	callq  400de0 <__printf_chk@plt>
  401dad:	bf 01 00 00 00       	mov    $0x1,%edi
  401db2:	e8 79 f0 ff ff       	callq  400e30 <exit@plt>
  401db7:	bf 25 34 40 00       	mov    $0x403425,%edi
  401dbc:	e8 ff ee ff ff       	callq  400cc0 <puts@plt>
  401dc1:	e9 78 ff ff ff       	jmpq   401d3e <notify_server+0xf2>
  401dc6:	48 89 ea             	mov    %rbp,%rdx
  401dc9:	be 70 35 40 00       	mov    $0x403570,%esi
  401dce:	bf 01 00 00 00       	mov    $0x1,%edi
  401dd3:	b8 00 00 00 00       	mov    $0x0,%eax
  401dd8:	e8 03 f0 ff ff       	callq  400de0 <__printf_chk@plt>
  401ddd:	48 8b 15 5c 33 20 00 	mov    0x20335c(%rip),%rdx        # 605140 <user_id>
  401de4:	be 2c 34 40 00       	mov    $0x40342c,%esi
  401de9:	bf 01 00 00 00       	mov    $0x1,%edi
  401dee:	b8 00 00 00 00       	mov    $0x0,%eax
  401df3:	e8 e8 ef ff ff       	callq  400de0 <__printf_chk@plt>
  401df8:	48 8b 15 59 33 20 00 	mov    0x203359(%rip),%rdx        # 605158 <course>
  401dff:	be 39 34 40 00       	mov    $0x403439,%esi
  401e04:	bf 01 00 00 00       	mov    $0x1,%edi
  401e09:	b8 00 00 00 00       	mov    $0x0,%eax
  401e0e:	e8 cd ef ff ff       	callq  400de0 <__printf_chk@plt>
  401e13:	48 8b 15 36 33 20 00 	mov    0x203336(%rip),%rdx        # 605150 <lab>
  401e1a:	be 45 34 40 00       	mov    $0x403445,%esi
  401e1f:	bf 01 00 00 00       	mov    $0x1,%edi
  401e24:	b8 00 00 00 00       	mov    $0x0,%eax
  401e29:	e8 b2 ef ff ff       	callq  400de0 <__printf_chk@plt>
  401e2e:	48 89 e2             	mov    %rsp,%rdx
  401e31:	be 4e 34 40 00       	mov    $0x40344e,%esi
  401e36:	bf 01 00 00 00       	mov    $0x1,%edi
  401e3b:	b8 00 00 00 00       	mov    $0x0,%eax
  401e40:	e8 9b ef ff ff       	callq  400de0 <__printf_chk@plt>
  401e45:	e9 f4 fe ff ff       	jmpq   401d3e <notify_server+0xf2>
  401e4a:	e8 91 ee ff ff       	callq  400ce0 <__stack_chk_fail@plt>

0000000000401e4f <validate>:
  401e4f:	53                   	push   %rbx
  401e50:	89 fb                	mov    %edi,%ebx
  401e52:	83 3d af 36 20 00 00 	cmpl   $0x0,0x2036af(%rip)        # 605508 <is_checker>
  401e59:	74 6b                	je     401ec6 <validate+0x77>
  401e5b:	39 3d 9b 36 20 00    	cmp    %edi,0x20369b(%rip)        # 6054fc <vlevel>
  401e61:	75 2f                	jne    401e92 <validate+0x43>
  401e63:	8b 15 8f 36 20 00    	mov    0x20368f(%rip),%edx        # 6054f8 <check_level>
  401e69:	39 fa                	cmp    %edi,%edx
  401e6b:	75 39                	jne    401ea6 <validate+0x57>
  401e6d:	0f be 15 b4 42 20 00 	movsbl 0x2042b4(%rip),%edx        # 606128 <target_prefix>
  401e74:	41 b8 20 55 60 00    	mov    $0x605520,%r8d
  401e7a:	89 f9                	mov    %edi,%ecx
  401e7c:	be 78 34 40 00       	mov    $0x403478,%esi
  401e81:	bf 01 00 00 00       	mov    $0x1,%edi
  401e86:	b8 00 00 00 00       	mov    $0x0,%eax
  401e8b:	e8 50 ef ff ff       	callq  400de0 <__printf_chk@plt>
  401e90:	5b                   	pop    %rbx
  401e91:	c3                   	retq   
  401e92:	bf 5a 34 40 00       	mov    $0x40345a,%edi
  401e97:	e8 24 ee ff ff       	callq  400cc0 <puts@plt>
  401e9c:	b8 00 00 00 00       	mov    $0x0,%eax
  401ea1:	e8 1f fd ff ff       	callq  401bc5 <check_fail>
  401ea6:	89 f9                	mov    %edi,%ecx
  401ea8:	be 98 35 40 00       	mov    $0x403598,%esi
  401ead:	bf 01 00 00 00       	mov    $0x1,%edi
  401eb2:	b8 00 00 00 00       	mov    $0x0,%eax
  401eb7:	e8 24 ef ff ff       	callq  400de0 <__printf_chk@plt>
  401ebc:	b8 00 00 00 00       	mov    $0x0,%eax
  401ec1:	e8 ff fc ff ff       	callq  401bc5 <check_fail>
  401ec6:	39 3d 30 36 20 00    	cmp    %edi,0x203630(%rip)        # 6054fc <vlevel>
  401ecc:	74 18                	je     401ee6 <validate+0x97>
  401ece:	bf 5a 34 40 00       	mov    $0x40345a,%edi
  401ed3:	e8 e8 ed ff ff       	callq  400cc0 <puts@plt>
  401ed8:	89 de                	mov    %ebx,%esi
  401eda:	bf 00 00 00 00       	mov    $0x0,%edi
  401edf:	e8 68 fd ff ff       	callq  401c4c <notify_server>
  401ee4:	eb aa                	jmp    401e90 <validate+0x41>
  401ee6:	0f be 0d 3b 42 20 00 	movsbl 0x20423b(%rip),%ecx        # 606128 <target_prefix>
  401eed:	89 fa                	mov    %edi,%edx
  401eef:	be c0 35 40 00       	mov    $0x4035c0,%esi
  401ef4:	bf 01 00 00 00       	mov    $0x1,%edi
  401ef9:	b8 00 00 00 00       	mov    $0x0,%eax
  401efe:	e8 dd ee ff ff       	callq  400de0 <__printf_chk@plt>
  401f03:	89 de                	mov    %ebx,%esi
  401f05:	bf 01 00 00 00       	mov    $0x1,%edi
  401f0a:	e8 3d fd ff ff       	callq  401c4c <notify_server>
  401f0f:	e9 7c ff ff ff       	jmpq   401e90 <validate+0x41>

0000000000401f14 <fail>:
  401f14:	48 83 ec 08          	sub    $0x8,%rsp
  401f18:	83 3d e9 35 20 00 00 	cmpl   $0x0,0x2035e9(%rip)        # 605508 <is_checker>
  401f1f:	75 11                	jne    401f32 <fail+0x1e>
  401f21:	89 fe                	mov    %edi,%esi
  401f23:	bf 00 00 00 00       	mov    $0x0,%edi
  401f28:	e8 1f fd ff ff       	callq  401c4c <notify_server>
  401f2d:	48 83 c4 08          	add    $0x8,%rsp
  401f31:	c3                   	retq   
  401f32:	b8 00 00 00 00       	mov    $0x0,%eax
  401f37:	e8 89 fc ff ff       	callq  401bc5 <check_fail>

0000000000401f3c <bushandler>:
  401f3c:	48 83 ec 08          	sub    $0x8,%rsp
  401f40:	83 3d c1 35 20 00 00 	cmpl   $0x0,0x2035c1(%rip)        # 605508 <is_checker>
  401f47:	74 14                	je     401f5d <bushandler+0x21>
  401f49:	bf 8d 34 40 00       	mov    $0x40348d,%edi
  401f4e:	e8 6d ed ff ff       	callq  400cc0 <puts@plt>
  401f53:	b8 00 00 00 00       	mov    $0x0,%eax
  401f58:	e8 68 fc ff ff       	callq  401bc5 <check_fail>
  401f5d:	bf f8 35 40 00       	mov    $0x4035f8,%edi
  401f62:	e8 59 ed ff ff       	callq  400cc0 <puts@plt>
  401f67:	bf 97 34 40 00       	mov    $0x403497,%edi
  401f6c:	e8 4f ed ff ff       	callq  400cc0 <puts@plt>
  401f71:	be 00 00 00 00       	mov    $0x0,%esi
  401f76:	bf 00 00 00 00       	mov    $0x0,%edi
  401f7b:	e8 cc fc ff ff       	callq  401c4c <notify_server>
  401f80:	bf 01 00 00 00       	mov    $0x1,%edi
  401f85:	e8 a6 ee ff ff       	callq  400e30 <exit@plt>

0000000000401f8a <seghandler>:
  401f8a:	48 83 ec 08          	sub    $0x8,%rsp
  401f8e:	83 3d 73 35 20 00 00 	cmpl   $0x0,0x203573(%rip)        # 605508 <is_checker>
  401f95:	74 14                	je     401fab <seghandler+0x21>
  401f97:	bf ad 34 40 00       	mov    $0x4034ad,%edi
  401f9c:	e8 1f ed ff ff       	callq  400cc0 <puts@plt>
  401fa1:	b8 00 00 00 00       	mov    $0x0,%eax
  401fa6:	e8 1a fc ff ff       	callq  401bc5 <check_fail>
  401fab:	bf 18 36 40 00       	mov    $0x403618,%edi
  401fb0:	e8 0b ed ff ff       	callq  400cc0 <puts@plt>
  401fb5:	bf 97 34 40 00       	mov    $0x403497,%edi
  401fba:	e8 01 ed ff ff       	callq  400cc0 <puts@plt>
  401fbf:	be 00 00 00 00       	mov    $0x0,%esi
  401fc4:	bf 00 00 00 00       	mov    $0x0,%edi
  401fc9:	e8 7e fc ff ff       	callq  401c4c <notify_server>
  401fce:	bf 01 00 00 00       	mov    $0x1,%edi
  401fd3:	e8 58 ee ff ff       	callq  400e30 <exit@plt>

0000000000401fd8 <illegalhandler>:
  401fd8:	48 83 ec 08          	sub    $0x8,%rsp
  401fdc:	83 3d 25 35 20 00 00 	cmpl   $0x0,0x203525(%rip)        # 605508 <is_checker>
  401fe3:	74 14                	je     401ff9 <illegalhandler+0x21>
  401fe5:	bf c0 34 40 00       	mov    $0x4034c0,%edi
  401fea:	e8 d1 ec ff ff       	callq  400cc0 <puts@plt>
  401fef:	b8 00 00 00 00       	mov    $0x0,%eax
  401ff4:	e8 cc fb ff ff       	callq  401bc5 <check_fail>
  401ff9:	bf 40 36 40 00       	mov    $0x403640,%edi
  401ffe:	e8 bd ec ff ff       	callq  400cc0 <puts@plt>
  402003:	bf 97 34 40 00       	mov    $0x403497,%edi
  402008:	e8 b3 ec ff ff       	callq  400cc0 <puts@plt>
  40200d:	be 00 00 00 00       	mov    $0x0,%esi
  402012:	bf 00 00 00 00       	mov    $0x0,%edi
  402017:	e8 30 fc ff ff       	callq  401c4c <notify_server>
  40201c:	bf 01 00 00 00       	mov    $0x1,%edi
  402021:	e8 0a ee ff ff       	callq  400e30 <exit@plt>

0000000000402026 <sigalrmhandler>:
  402026:	48 83 ec 08          	sub    $0x8,%rsp
  40202a:	83 3d d7 34 20 00 00 	cmpl   $0x0,0x2034d7(%rip)        # 605508 <is_checker>
  402031:	74 14                	je     402047 <sigalrmhandler+0x21>
  402033:	bf d4 34 40 00       	mov    $0x4034d4,%edi
  402038:	e8 83 ec ff ff       	callq  400cc0 <puts@plt>
  40203d:	b8 00 00 00 00       	mov    $0x0,%eax
  402042:	e8 7e fb ff ff       	callq  401bc5 <check_fail>
  402047:	ba 05 00 00 00       	mov    $0x5,%edx
  40204c:	be 70 36 40 00       	mov    $0x403670,%esi
  402051:	bf 01 00 00 00       	mov    $0x1,%edi
  402056:	b8 00 00 00 00       	mov    $0x0,%eax
  40205b:	e8 80 ed ff ff       	callq  400de0 <__printf_chk@plt>
  402060:	be 00 00 00 00       	mov    $0x0,%esi
  402065:	bf 00 00 00 00       	mov    $0x0,%edi
  40206a:	e8 dd fb ff ff       	callq  401c4c <notify_server>
  40206f:	bf 01 00 00 00       	mov    $0x1,%edi
  402074:	e8 b7 ed ff ff       	callq  400e30 <exit@plt>

0000000000402079 <launch>:
  402079:	55                   	push   %rbp
  40207a:	48 89 e5             	mov    %rsp,%rbp
  40207d:	48 83 ec 10          	sub    $0x10,%rsp
  402081:	48 89 fa             	mov    %rdi,%rdx
  402084:	64 48 8b 04 25 28 00 	mov    %fs:0x28,%rax
  40208b:	00 00 
  40208d:	48 89 45 f8          	mov    %rax,-0x8(%rbp)
  402091:	31 c0                	xor    %eax,%eax
  402093:	48 8d 47 1e          	lea    0x1e(%rdi),%rax
  402097:	48 83 e0 f0          	and    $0xfffffffffffffff0,%rax
  40209b:	48 29 c4             	sub    %rax,%rsp
  40209e:	48 8d 7c 24 0f       	lea    0xf(%rsp),%rdi
  4020a3:	48 83 e7 f0          	and    $0xfffffffffffffff0,%rdi
  4020a7:	be f4 00 00 00       	mov    $0xf4,%esi
  4020ac:	e8 4f ec ff ff       	callq  400d00 <memset@plt>
  4020b1:	48 8b 05 e8 33 20 00 	mov    0x2033e8(%rip),%rax        # 6054a0 <stdin@@GLIBC_2.2.5>
  4020b8:	48 39 05 31 34 20 00 	cmp    %rax,0x203431(%rip)        # 6054f0 <infile>
  4020bf:	74 38                	je     4020f9 <launch+0x80>
  4020c1:	c7 05 31 34 20 00 00 	movl   $0x0,0x203431(%rip)        # 6054fc <vlevel>
  4020c8:	00 00 00 
  4020cb:	b8 00 00 00 00       	mov    $0x0,%eax
  4020d0:	e8 3b f9 ff ff       	callq  401a10 <test>
  4020d5:	83 3d 2c 34 20 00 00 	cmpl   $0x0,0x20342c(%rip)        # 605508 <is_checker>
  4020dc:	75 31                	jne    40210f <launch+0x96>
  4020de:	bf f4 34 40 00       	mov    $0x4034f4,%edi
  4020e3:	e8 d8 eb ff ff       	callq  400cc0 <puts@plt>
  4020e8:	48 8b 45 f8          	mov    -0x8(%rbp),%rax
  4020ec:	64 48 33 04 25 28 00 	xor    %fs:0x28,%rax
  4020f3:	00 00 
  4020f5:	75 2c                	jne    402123 <launch+0xaa>
  4020f7:	c9                   	leaveq 
  4020f8:	c3                   	retq   
  4020f9:	be dc 34 40 00       	mov    $0x4034dc,%esi
  4020fe:	bf 01 00 00 00       	mov    $0x1,%edi
  402103:	b8 00 00 00 00       	mov    $0x0,%eax
  402108:	e8 d3 ec ff ff       	callq  400de0 <__printf_chk@plt>
  40210d:	eb b2                	jmp    4020c1 <launch+0x48>
  40210f:	bf e9 34 40 00       	mov    $0x4034e9,%edi
  402114:	e8 a7 eb ff ff       	callq  400cc0 <puts@plt>
  402119:	b8 00 00 00 00       	mov    $0x0,%eax
  40211e:	e8 a2 fa ff ff       	callq  401bc5 <check_fail>
  402123:	e8 b8 eb ff ff       	callq  400ce0 <__stack_chk_fail@plt>

0000000000402128 <stable_launch>:
  402128:	53                   	push   %rbx
  402129:	48 89 3d b8 33 20 00 	mov    %rdi,0x2033b8(%rip)        # 6054e8 <global_offset>
  402130:	41 b9 00 00 00 00    	mov    $0x0,%r9d
  402136:	41 b8 00 00 00 00    	mov    $0x0,%r8d
  40213c:	b9 32 01 00 00       	mov    $0x132,%ecx
  402141:	ba 07 00 00 00       	mov    $0x7,%edx
  402146:	be 00 00 10 00       	mov    $0x100000,%esi
  40214b:	bf 00 60 58 55       	mov    $0x55586000,%edi
  402150:	e8 9b eb ff ff       	callq  400cf0 <mmap@plt>
  402155:	48 89 c3             	mov    %rax,%rbx
  402158:	48 3d 00 60 58 55    	cmp    $0x55586000,%rax
  40215e:	75 43                	jne    4021a3 <stable_launch+0x7b>
  402160:	48 8d 90 f8 ff 0f 00 	lea    0xffff8(%rax),%rdx
  402167:	48 89 15 c2 3f 20 00 	mov    %rdx,0x203fc2(%rip)        # 606130 <stack_top>
  40216e:	48 89 e0             	mov    %rsp,%rax
  402171:	48 89 d4             	mov    %rdx,%rsp
  402174:	48 89 c2             	mov    %rax,%rdx
  402177:	48 89 15 62 33 20 00 	mov    %rdx,0x203362(%rip)        # 6054e0 <global_save_stack>
  40217e:	48 8b 3d 63 33 20 00 	mov    0x203363(%rip),%rdi        # 6054e8 <global_offset>
  402185:	e8 ef fe ff ff       	callq  402079 <launch>
  40218a:	48 8b 05 4f 33 20 00 	mov    0x20334f(%rip),%rax        # 6054e0 <global_save_stack>
  402191:	48 89 c4             	mov    %rax,%rsp
  402194:	be 00 00 10 00       	mov    $0x100000,%esi
  402199:	48 89 df             	mov    %rbx,%rdi
  40219c:	e8 2f ec ff ff       	callq  400dd0 <munmap@plt>
  4021a1:	5b                   	pop    %rbx
  4021a2:	c3                   	retq   
  4021a3:	be 00 00 10 00       	mov    $0x100000,%esi
  4021a8:	48 89 c7             	mov    %rax,%rdi
  4021ab:	e8 20 ec ff ff       	callq  400dd0 <munmap@plt>
  4021b0:	b9 00 60 58 55       	mov    $0x55586000,%ecx
  4021b5:	ba a8 36 40 00       	mov    $0x4036a8,%edx
  4021ba:	be 01 00 00 00       	mov    $0x1,%esi
  4021bf:	48 8b 3d fa 32 20 00 	mov    0x2032fa(%rip),%rdi        # 6054c0 <stderr@@GLIBC_2.2.5>
  4021c6:	b8 00 00 00 00       	mov    $0x0,%eax
  4021cb:	e8 80 ec ff ff       	callq  400e50 <__fprintf_chk@plt>
  4021d0:	bf 01 00 00 00       	mov    $0x1,%edi
  4021d5:	e8 56 ec ff ff       	callq  400e30 <exit@plt>

00000000004021da <rio_readinitb>:
  4021da:	89 37                	mov    %esi,(%rdi)
  4021dc:	c7 47 04 00 00 00 00 	movl   $0x0,0x4(%rdi)
  4021e3:	48 8d 47 10          	lea    0x10(%rdi),%rax
  4021e7:	48 89 47 08          	mov    %rax,0x8(%rdi)
  4021eb:	c3                   	retq   

00000000004021ec <sigalrm_handler>:
  4021ec:	48 83 ec 08          	sub    $0x8,%rsp
  4021f0:	b9 00 00 00 00       	mov    $0x0,%ecx
  4021f5:	ba e0 36 40 00       	mov    $0x4036e0,%edx
  4021fa:	be 01 00 00 00       	mov    $0x1,%esi
  4021ff:	48 8b 3d ba 32 20 00 	mov    0x2032ba(%rip),%rdi        # 6054c0 <stderr@@GLIBC_2.2.5>
  402206:	b8 00 00 00 00       	mov    $0x0,%eax
  40220b:	e8 40 ec ff ff       	callq  400e50 <__fprintf_chk@plt>
  402210:	bf 01 00 00 00       	mov    $0x1,%edi
  402215:	e8 16 ec ff ff       	callq  400e30 <exit@plt>

000000000040221a <rio_writen>:
  40221a:	41 55                	push   %r13
  40221c:	41 54                	push   %r12
  40221e:	55                   	push   %rbp
  40221f:	53                   	push   %rbx
  402220:	48 83 ec 08          	sub    $0x8,%rsp
  402224:	41 89 fc             	mov    %edi,%r12d
  402227:	48 89 f5             	mov    %rsi,%rbp
  40222a:	49 89 d5             	mov    %rdx,%r13
  40222d:	48 89 d3             	mov    %rdx,%rbx
  402230:	eb 06                	jmp    402238 <rio_writen+0x1e>
  402232:	48 29 c3             	sub    %rax,%rbx
  402235:	48 01 c5             	add    %rax,%rbp
  402238:	48 85 db             	test   %rbx,%rbx
  40223b:	74 24                	je     402261 <rio_writen+0x47>
  40223d:	48 89 da             	mov    %rbx,%rdx
  402240:	48 89 ee             	mov    %rbp,%rsi
  402243:	44 89 e7             	mov    %r12d,%edi
  402246:	e8 85 ea ff ff       	callq  400cd0 <write@plt>
  40224b:	48 85 c0             	test   %rax,%rax
  40224e:	7f e2                	jg     402232 <rio_writen+0x18>
  402250:	e8 2b ea ff ff       	callq  400c80 <__errno_location@plt>
  402255:	83 38 04             	cmpl   $0x4,(%rax)
  402258:	75 15                	jne    40226f <rio_writen+0x55>
  40225a:	b8 00 00 00 00       	mov    $0x0,%eax
  40225f:	eb d1                	jmp    402232 <rio_writen+0x18>
  402261:	4c 89 e8             	mov    %r13,%rax
  402264:	48 83 c4 08          	add    $0x8,%rsp
  402268:	5b                   	pop    %rbx
  402269:	5d                   	pop    %rbp
  40226a:	41 5c                	pop    %r12
  40226c:	41 5d                	pop    %r13
  40226e:	c3                   	retq   
  40226f:	48 c7 c0 ff ff ff ff 	mov    $0xffffffffffffffff,%rax
  402276:	eb ec                	jmp    402264 <rio_writen+0x4a>

0000000000402278 <rio_read>:
  402278:	41 55                	push   %r13
  40227a:	41 54                	push   %r12
  40227c:	55                   	push   %rbp
  40227d:	53                   	push   %rbx
  40227e:	48 83 ec 08          	sub    $0x8,%rsp
  402282:	48 89 fb             	mov    %rdi,%rbx
  402285:	49 89 f5             	mov    %rsi,%r13
  402288:	49 89 d4             	mov    %rdx,%r12
  40228b:	eb 0a                	jmp    402297 <rio_read+0x1f>
  40228d:	e8 ee e9 ff ff       	callq  400c80 <__errno_location@plt>
  402292:	83 38 04             	cmpl   $0x4,(%rax)
  402295:	75 5c                	jne    4022f3 <rio_read+0x7b>
  402297:	8b 6b 04             	mov    0x4(%rbx),%ebp
  40229a:	85 ed                	test   %ebp,%ebp
  40229c:	7f 24                	jg     4022c2 <rio_read+0x4a>
  40229e:	48 8d 6b 10          	lea    0x10(%rbx),%rbp
  4022a2:	8b 3b                	mov    (%rbx),%edi
  4022a4:	ba 00 20 00 00       	mov    $0x2000,%edx
  4022a9:	48 89 ee             	mov    %rbp,%rsi
  4022ac:	e8 7f ea ff ff       	callq  400d30 <read@plt>
  4022b1:	89 43 04             	mov    %eax,0x4(%rbx)
  4022b4:	85 c0                	test   %eax,%eax
  4022b6:	78 d5                	js     40228d <rio_read+0x15>
  4022b8:	85 c0                	test   %eax,%eax
  4022ba:	74 40                	je     4022fc <rio_read+0x84>
  4022bc:	48 89 6b 08          	mov    %rbp,0x8(%rbx)
  4022c0:	eb d5                	jmp    402297 <rio_read+0x1f>
  4022c2:	89 e8                	mov    %ebp,%eax
  4022c4:	4c 39 e0             	cmp    %r12,%rax
  4022c7:	72 03                	jb     4022cc <rio_read+0x54>
  4022c9:	44 89 e5             	mov    %r12d,%ebp
  4022cc:	4c 63 e5             	movslq %ebp,%r12
  4022cf:	48 8b 73 08          	mov    0x8(%rbx),%rsi
  4022d3:	4c 89 e2             	mov    %r12,%rdx
  4022d6:	4c 89 ef             	mov    %r13,%rdi
  4022d9:	e8 a2 ea ff ff       	callq  400d80 <memcpy@plt>
  4022de:	4c 01 63 08          	add    %r12,0x8(%rbx)
  4022e2:	29 6b 04             	sub    %ebp,0x4(%rbx)
  4022e5:	4c 89 e0             	mov    %r12,%rax
  4022e8:	48 83 c4 08          	add    $0x8,%rsp
  4022ec:	5b                   	pop    %rbx
  4022ed:	5d                   	pop    %rbp
  4022ee:	41 5c                	pop    %r12
  4022f0:	41 5d                	pop    %r13
  4022f2:	c3                   	retq   
  4022f3:	48 c7 c0 ff ff ff ff 	mov    $0xffffffffffffffff,%rax
  4022fa:	eb ec                	jmp    4022e8 <rio_read+0x70>
  4022fc:	b8 00 00 00 00       	mov    $0x0,%eax
  402301:	eb e5                	jmp    4022e8 <rio_read+0x70>

0000000000402303 <rio_readlineb>:
  402303:	41 55                	push   %r13
  402305:	41 54                	push   %r12
  402307:	55                   	push   %rbp
  402308:	53                   	push   %rbx
  402309:	48 83 ec 18          	sub    $0x18,%rsp
  40230d:	49 89 fd             	mov    %rdi,%r13
  402310:	48 89 f5             	mov    %rsi,%rbp
  402313:	49 89 d4             	mov    %rdx,%r12
  402316:	64 48 8b 04 25 28 00 	mov    %fs:0x28,%rax
  40231d:	00 00 
  40231f:	48 89 44 24 08       	mov    %rax,0x8(%rsp)
  402324:	31 c0                	xor    %eax,%eax
  402326:	bb 01 00 00 00       	mov    $0x1,%ebx
  40232b:	4c 39 e3             	cmp    %r12,%rbx
  40232e:	73 47                	jae    402377 <rio_readlineb+0x74>
  402330:	ba 01 00 00 00       	mov    $0x1,%edx
  402335:	48 8d 74 24 07       	lea    0x7(%rsp),%rsi
  40233a:	4c 89 ef             	mov    %r13,%rdi
  40233d:	e8 36 ff ff ff       	callq  402278 <rio_read>
  402342:	83 f8 01             	cmp    $0x1,%eax
  402345:	75 1c                	jne    402363 <rio_readlineb+0x60>
  402347:	48 8d 45 01          	lea    0x1(%rbp),%rax
  40234b:	0f b6 54 24 07       	movzbl 0x7(%rsp),%edx
  402350:	88 55 00             	mov    %dl,0x0(%rbp)
  402353:	80 7c 24 07 0a       	cmpb   $0xa,0x7(%rsp)
  402358:	74 1a                	je     402374 <rio_readlineb+0x71>
  40235a:	48 83 c3 01          	add    $0x1,%rbx
  40235e:	48 89 c5             	mov    %rax,%rbp
  402361:	eb c8                	jmp    40232b <rio_readlineb+0x28>
  402363:	85 c0                	test   %eax,%eax
  402365:	75 32                	jne    402399 <rio_readlineb+0x96>
  402367:	48 83 fb 01          	cmp    $0x1,%rbx
  40236b:	75 0a                	jne    402377 <rio_readlineb+0x74>
  40236d:	b8 00 00 00 00       	mov    $0x0,%eax
  402372:	eb 0a                	jmp    40237e <rio_readlineb+0x7b>
  402374:	48 89 c5             	mov    %rax,%rbp
  402377:	c6 45 00 00          	movb   $0x0,0x0(%rbp)
  40237b:	48 89 d8             	mov    %rbx,%rax
  40237e:	48 8b 4c 24 08       	mov    0x8(%rsp),%rcx
  402383:	64 48 33 0c 25 28 00 	xor    %fs:0x28,%rcx
  40238a:	00 00 
  40238c:	75 14                	jne    4023a2 <rio_readlineb+0x9f>
  40238e:	48 83 c4 18          	add    $0x18,%rsp
  402392:	5b                   	pop    %rbx
  402393:	5d                   	pop    %rbp
  402394:	41 5c                	pop    %r12
  402396:	41 5d                	pop    %r13
  402398:	c3                   	retq   
  402399:	48 c7 c0 ff ff ff ff 	mov    $0xffffffffffffffff,%rax
  4023a0:	eb dc                	jmp    40237e <rio_readlineb+0x7b>
  4023a2:	e8 39 e9 ff ff       	callq  400ce0 <__stack_chk_fail@plt>

00000000004023a7 <urlencode>:
  4023a7:	41 54                	push   %r12
  4023a9:	55                   	push   %rbp
  4023aa:	53                   	push   %rbx
  4023ab:	48 83 ec 10          	sub    $0x10,%rsp
  4023af:	48 89 fb             	mov    %rdi,%rbx
  4023b2:	48 89 f5             	mov    %rsi,%rbp
  4023b5:	64 48 8b 04 25 28 00 	mov    %fs:0x28,%rax
  4023bc:	00 00 
  4023be:	48 89 44 24 08       	mov    %rax,0x8(%rsp)
  4023c3:	31 c0                	xor    %eax,%eax
  4023c5:	48 c7 c1 ff ff ff ff 	mov    $0xffffffffffffffff,%rcx
  4023cc:	f2 ae                	repnz scas %es:(%rdi),%al
  4023ce:	48 89 ce             	mov    %rcx,%rsi
  4023d1:	48 f7 d6             	not    %rsi
  4023d4:	8d 46 ff             	lea    -0x1(%rsi),%eax
  4023d7:	eb 0f                	jmp    4023e8 <urlencode+0x41>
  4023d9:	44 88 45 00          	mov    %r8b,0x0(%rbp)
  4023dd:	48 8d 6d 01          	lea    0x1(%rbp),%rbp
  4023e1:	48 83 c3 01          	add    $0x1,%rbx
  4023e5:	44 89 e0             	mov    %r12d,%eax
  4023e8:	44 8d 60 ff          	lea    -0x1(%rax),%r12d
  4023ec:	85 c0                	test   %eax,%eax
  4023ee:	0f 84 a6 00 00 00    	je     40249a <urlencode+0xf3>
  4023f4:	44 0f b6 03          	movzbl (%rbx),%r8d
  4023f8:	41 80 f8 2a          	cmp    $0x2a,%r8b
  4023fc:	0f 94 c2             	sete   %dl
  4023ff:	41 80 f8 2d          	cmp    $0x2d,%r8b
  402403:	0f 94 c0             	sete   %al
  402406:	08 c2                	or     %al,%dl
  402408:	75 cf                	jne    4023d9 <urlencode+0x32>
  40240a:	41 80 f8 2e          	cmp    $0x2e,%r8b
  40240e:	74 c9                	je     4023d9 <urlencode+0x32>
  402410:	41 80 f8 5f          	cmp    $0x5f,%r8b
  402414:	74 c3                	je     4023d9 <urlencode+0x32>
  402416:	41 8d 40 d0          	lea    -0x30(%r8),%eax
  40241a:	3c 09                	cmp    $0x9,%al
  40241c:	76 bb                	jbe    4023d9 <urlencode+0x32>
  40241e:	41 8d 40 bf          	lea    -0x41(%r8),%eax
  402422:	3c 19                	cmp    $0x19,%al
  402424:	76 b3                	jbe    4023d9 <urlencode+0x32>
  402426:	41 8d 40 9f          	lea    -0x61(%r8),%eax
  40242a:	3c 19                	cmp    $0x19,%al
  40242c:	76 ab                	jbe    4023d9 <urlencode+0x32>
  40242e:	41 80 f8 20          	cmp    $0x20,%r8b
  402432:	74 54                	je     402488 <urlencode+0xe1>
  402434:	41 8d 40 e0          	lea    -0x20(%r8),%eax
  402438:	3c 5f                	cmp    $0x5f,%al
  40243a:	0f 96 c2             	setbe  %dl
  40243d:	41 80 f8 09          	cmp    $0x9,%r8b
  402441:	0f 94 c0             	sete   %al
  402444:	08 c2                	or     %al,%dl
  402446:	74 4d                	je     402495 <urlencode+0xee>
  402448:	45 0f b6 c0          	movzbl %r8b,%r8d
  40244c:	b9 78 37 40 00       	mov    $0x403778,%ecx
  402451:	ba 08 00 00 00       	mov    $0x8,%edx
  402456:	be 01 00 00 00       	mov    $0x1,%esi
  40245b:	48 89 e7             	mov    %rsp,%rdi
  40245e:	b8 00 00 00 00       	mov    $0x0,%eax
  402463:	e8 f8 e9 ff ff       	callq  400e60 <__sprintf_chk@plt>
  402468:	0f b6 04 24          	movzbl (%rsp),%eax
  40246c:	88 45 00             	mov    %al,0x0(%rbp)
  40246f:	0f b6 44 24 01       	movzbl 0x1(%rsp),%eax
  402474:	88 45 01             	mov    %al,0x1(%rbp)
  402477:	0f b6 44 24 02       	movzbl 0x2(%rsp),%eax
  40247c:	88 45 02             	mov    %al,0x2(%rbp)
  40247f:	48 8d 6d 03          	lea    0x3(%rbp),%rbp
  402483:	e9 59 ff ff ff       	jmpq   4023e1 <urlencode+0x3a>
  402488:	c6 45 00 2b          	movb   $0x2b,0x0(%rbp)
  40248c:	48 8d 6d 01          	lea    0x1(%rbp),%rbp
  402490:	e9 4c ff ff ff       	jmpq   4023e1 <urlencode+0x3a>
  402495:	b8 ff ff ff ff       	mov    $0xffffffff,%eax
  40249a:	48 8b 74 24 08       	mov    0x8(%rsp),%rsi
  40249f:	64 48 33 34 25 28 00 	xor    %fs:0x28,%rsi
  4024a6:	00 00 
  4024a8:	75 09                	jne    4024b3 <urlencode+0x10c>
  4024aa:	48 83 c4 10          	add    $0x10,%rsp
  4024ae:	5b                   	pop    %rbx
  4024af:	5d                   	pop    %rbp
  4024b0:	41 5c                	pop    %r12
  4024b2:	c3                   	retq   
  4024b3:	e8 28 e8 ff ff       	callq  400ce0 <__stack_chk_fail@plt>

00000000004024b8 <submitr>:
  4024b8:	41 57                	push   %r15
  4024ba:	41 56                	push   %r14
  4024bc:	41 55                	push   %r13
  4024be:	41 54                	push   %r12
  4024c0:	55                   	push   %rbp
  4024c1:	53                   	push   %rbx
  4024c2:	48 81 ec 58 a0 00 00 	sub    $0xa058,%rsp
  4024c9:	49 89 fc             	mov    %rdi,%r12
  4024cc:	89 74 24 04          	mov    %esi,0x4(%rsp)
  4024d0:	49 89 d7             	mov    %rdx,%r15
  4024d3:	49 89 ce             	mov    %rcx,%r14
  4024d6:	4c 89 44 24 08       	mov    %r8,0x8(%rsp)
  4024db:	4d 89 cd             	mov    %r9,%r13
  4024de:	48 8b ac 24 90 a0 00 	mov    0xa090(%rsp),%rbp
  4024e5:	00 
  4024e6:	64 48 8b 04 25 28 00 	mov    %fs:0x28,%rax
  4024ed:	00 00 
  4024ef:	48 89 84 24 48 a0 00 	mov    %rax,0xa048(%rsp)
  4024f6:	00 
  4024f7:	31 c0                	xor    %eax,%eax
  4024f9:	c7 44 24 1c 00 00 00 	movl   $0x0,0x1c(%rsp)
  402500:	00 
  402501:	ba 00 00 00 00       	mov    $0x0,%edx
  402506:	be 01 00 00 00       	mov    $0x1,%esi
  40250b:	bf 02 00 00 00       	mov    $0x2,%edi
  402510:	e8 5b e9 ff ff       	callq  400e70 <socket@plt>
  402515:	85 c0                	test   %eax,%eax
  402517:	0f 88 9b 02 00 00    	js     4027b8 <submitr+0x300>
  40251d:	89 c3                	mov    %eax,%ebx
  40251f:	4c 89 e7             	mov    %r12,%rdi
  402522:	e8 29 e8 ff ff       	callq  400d50 <gethostbyname@plt>
  402527:	48 85 c0             	test   %rax,%rax
  40252a:	0f 84 d4 02 00 00    	je     402804 <submitr+0x34c>
  402530:	48 c7 44 24 22 00 00 	movq   $0x0,0x22(%rsp)
  402537:	00 00 
  402539:	c7 44 24 2a 00 00 00 	movl   $0x0,0x2a(%rsp)
  402540:	00 
  402541:	66 c7 44 24 2e 00 00 	movw   $0x0,0x2e(%rsp)
  402548:	66 c7 44 24 20 02 00 	movw   $0x2,0x20(%rsp)
  40254f:	48 63 50 14          	movslq 0x14(%rax),%rdx
  402553:	48 8b 40 18          	mov    0x18(%rax),%rax
  402557:	48 8b 30             	mov    (%rax),%rsi
  40255a:	48 8d 7c 24 24       	lea    0x24(%rsp),%rdi
  40255f:	b9 0c 00 00 00       	mov    $0xc,%ecx
  402564:	e8 f7 e7 ff ff       	callq  400d60 <__memmove_chk@plt>
  402569:	0f b7 44 24 04       	movzwl 0x4(%rsp),%eax
  40256e:	66 c1 c8 08          	ror    $0x8,%ax
  402572:	66 89 44 24 22       	mov    %ax,0x22(%rsp)
  402577:	ba 10 00 00 00       	mov    $0x10,%edx
  40257c:	48 8d 74 24 20       	lea    0x20(%rsp),%rsi
  402581:	89 df                	mov    %ebx,%edi
  402583:	e8 b8 e8 ff ff       	callq  400e40 <connect@plt>
  402588:	85 c0                	test   %eax,%eax
  40258a:	0f 88 dc 02 00 00    	js     40286c <submitr+0x3b4>
  402590:	48 c7 c6 ff ff ff ff 	mov    $0xffffffffffffffff,%rsi
  402597:	b8 00 00 00 00       	mov    $0x0,%eax
  40259c:	48 89 f1             	mov    %rsi,%rcx
  40259f:	4c 89 ef             	mov    %r13,%rdi
  4025a2:	f2 ae                	repnz scas %es:(%rdi),%al
  4025a4:	48 89 ca             	mov    %rcx,%rdx
  4025a7:	48 f7 d2             	not    %rdx
  4025aa:	48 89 f1             	mov    %rsi,%rcx
  4025ad:	4c 89 ff             	mov    %r15,%rdi
  4025b0:	f2 ae                	repnz scas %es:(%rdi),%al
  4025b2:	48 f7 d1             	not    %rcx
  4025b5:	49 89 c8             	mov    %rcx,%r8
  4025b8:	48 89 f1             	mov    %rsi,%rcx
  4025bb:	4c 89 f7             	mov    %r14,%rdi
  4025be:	f2 ae                	repnz scas %es:(%rdi),%al
  4025c0:	48 f7 d1             	not    %rcx
  4025c3:	4d 8d 44 08 fe       	lea    -0x2(%r8,%rcx,1),%r8
  4025c8:	48 89 f1             	mov    %rsi,%rcx
  4025cb:	48 8b 7c 24 08       	mov    0x8(%rsp),%rdi
  4025d0:	f2 ae                	repnz scas %es:(%rdi),%al
  4025d2:	48 89 c8             	mov    %rcx,%rax
  4025d5:	48 f7 d0             	not    %rax
  4025d8:	49 8d 4c 00 ff       	lea    -0x1(%r8,%rax,1),%rcx
  4025dd:	48 8d 44 52 fd       	lea    -0x3(%rdx,%rdx,2),%rax
  4025e2:	48 8d 84 01 80 00 00 	lea    0x80(%rcx,%rax,1),%rax
  4025e9:	00 
  4025ea:	48 3d 00 20 00 00    	cmp    $0x2000,%rax
  4025f0:	0f 87 d0 02 00 00    	ja     4028c6 <submitr+0x40e>
  4025f6:	48 8d b4 24 40 40 00 	lea    0x4040(%rsp),%rsi
  4025fd:	00 
  4025fe:	b9 00 04 00 00       	mov    $0x400,%ecx
  402603:	b8 00 00 00 00       	mov    $0x0,%eax
  402608:	48 89 f7             	mov    %rsi,%rdi
  40260b:	f3 48 ab             	rep stos %rax,%es:(%rdi)
  40260e:	4c 89 ef             	mov    %r13,%rdi
  402611:	e8 91 fd ff ff       	callq  4023a7 <urlencode>
  402616:	85 c0                	test   %eax,%eax
  402618:	0f 88 1b 03 00 00    	js     402939 <submitr+0x481>
  40261e:	4c 8d ac 24 40 20 00 	lea    0x2040(%rsp),%r13
  402625:	00 
  402626:	41 54                	push   %r12
  402628:	48 8d 84 24 48 40 00 	lea    0x4048(%rsp),%rax
  40262f:	00 
  402630:	50                   	push   %rax
  402631:	4d 89 f9             	mov    %r15,%r9
  402634:	4d 89 f0             	mov    %r14,%r8
  402637:	b9 08 37 40 00       	mov    $0x403708,%ecx
  40263c:	ba 00 20 00 00       	mov    $0x2000,%edx
  402641:	be 01 00 00 00       	mov    $0x1,%esi
  402646:	4c 89 ef             	mov    %r13,%rdi
  402649:	b8 00 00 00 00       	mov    $0x0,%eax
  40264e:	e8 0d e8 ff ff       	callq  400e60 <__sprintf_chk@plt>
  402653:	48 c7 c1 ff ff ff ff 	mov    $0xffffffffffffffff,%rcx
  40265a:	b8 00 00 00 00       	mov    $0x0,%eax
  40265f:	4c 89 ef             	mov    %r13,%rdi
  402662:	f2 ae                	repnz scas %es:(%rdi),%al
  402664:	48 89 ca             	mov    %rcx,%rdx
  402667:	48 f7 d2             	not    %rdx
  40266a:	48 8d 52 ff          	lea    -0x1(%rdx),%rdx
  40266e:	4c 89 ee             	mov    %r13,%rsi
  402671:	89 df                	mov    %ebx,%edi
  402673:	e8 a2 fb ff ff       	callq  40221a <rio_writen>
  402678:	48 83 c4 10          	add    $0x10,%rsp
  40267c:	48 85 c0             	test   %rax,%rax
  40267f:	0f 88 3f 03 00 00    	js     4029c4 <submitr+0x50c>
  402685:	89 de                	mov    %ebx,%esi
  402687:	48 8d 7c 24 30       	lea    0x30(%rsp),%rdi
  40268c:	e8 49 fb ff ff       	callq  4021da <rio_readinitb>
  402691:	ba 00 20 00 00       	mov    $0x2000,%edx
  402696:	48 8d b4 24 40 20 00 	lea    0x2040(%rsp),%rsi
  40269d:	00 
  40269e:	48 8d 7c 24 30       	lea    0x30(%rsp),%rdi
  4026a3:	e8 5b fc ff ff       	callq  402303 <rio_readlineb>
  4026a8:	48 85 c0             	test   %rax,%rax
  4026ab:	0f 8e 82 03 00 00    	jle    402a33 <submitr+0x57b>
  4026b1:	4c 8d 84 24 40 80 00 	lea    0x8040(%rsp),%r8
  4026b8:	00 
  4026b9:	48 8d 4c 24 1c       	lea    0x1c(%rsp),%rcx
  4026be:	48 8d 94 24 40 60 00 	lea    0x6040(%rsp),%rdx
  4026c5:	00 
  4026c6:	be 7f 37 40 00       	mov    $0x40377f,%esi
  4026cb:	48 8d bc 24 40 20 00 	lea    0x2040(%rsp),%rdi
  4026d2:	00 
  4026d3:	b8 00 00 00 00       	mov    $0x0,%eax
  4026d8:	e8 e3 e6 ff ff       	callq  400dc0 <__isoc99_sscanf@plt>
  4026dd:	48 8d b4 24 40 20 00 	lea    0x2040(%rsp),%rsi
  4026e4:	00 
  4026e5:	bf 96 37 40 00       	mov    $0x403796,%edi
  4026ea:	b9 03 00 00 00       	mov    $0x3,%ecx
  4026ef:	f3 a6                	repz cmpsb %es:(%rdi),%ds:(%rsi)
  4026f1:	0f 97 c0             	seta   %al
  4026f4:	1c 00                	sbb    $0x0,%al
  4026f6:	84 c0                	test   %al,%al
  4026f8:	0f 84 b3 03 00 00    	je     402ab1 <submitr+0x5f9>
  4026fe:	ba 00 20 00 00       	mov    $0x2000,%edx
  402703:	48 8d b4 24 40 20 00 	lea    0x2040(%rsp),%rsi
  40270a:	00 
  40270b:	48 8d 7c 24 30       	lea    0x30(%rsp),%rdi
  402710:	e8 ee fb ff ff       	callq  402303 <rio_readlineb>
  402715:	48 85 c0             	test   %rax,%rax
  402718:	7f c3                	jg     4026dd <submitr+0x225>
  40271a:	48 b8 45 72 72 6f 72 	movabs $0x43203a726f727245,%rax
  402721:	3a 20 43 
  402724:	48 ba 6c 69 65 6e 74 	movabs $0x6e7520746e65696c,%rdx
  40272b:	20 75 6e 
  40272e:	48 89 45 00          	mov    %rax,0x0(%rbp)
  402732:	48 89 55 08          	mov    %rdx,0x8(%rbp)
  402736:	48 b8 61 62 6c 65 20 	movabs $0x206f7420656c6261,%rax
  40273d:	74 6f 20 
  402740:	48 ba 72 65 61 64 20 	movabs $0x6165682064616572,%rdx
  402747:	68 65 61 
  40274a:	48 89 45 10          	mov    %rax,0x10(%rbp)
  40274e:	48 89 55 18          	mov    %rdx,0x18(%rbp)
  402752:	48 b8 64 65 72 73 20 	movabs $0x6f72662073726564,%rax
  402759:	66 72 6f 
  40275c:	48 ba 6d 20 74 68 65 	movabs $0x657220656874206d,%rdx
  402763:	20 72 65 
  402766:	48 89 45 20          	mov    %rax,0x20(%rbp)
  40276a:	48 89 55 28          	mov    %rdx,0x28(%rbp)
  40276e:	48 b8 73 75 6c 74 20 	movabs $0x72657320746c7573,%rax
  402775:	73 65 72 
  402778:	48 89 45 30          	mov    %rax,0x30(%rbp)
  40277c:	c7 45 38 76 65 72 00 	movl   $0x726576,0x38(%rbp)
  402783:	89 df                	mov    %ebx,%edi
  402785:	e8 96 e5 ff ff       	callq  400d20 <close@plt>
  40278a:	b8 ff ff ff ff       	mov    $0xffffffff,%eax
  40278f:	48 8b 9c 24 48 a0 00 	mov    0xa048(%rsp),%rbx
  402796:	00 
  402797:	64 48 33 1c 25 28 00 	xor    %fs:0x28,%rbx
  40279e:	00 00 
  4027a0:	0f 85 76 04 00 00    	jne    402c1c <submitr+0x764>
  4027a6:	48 81 c4 58 a0 00 00 	add    $0xa058,%rsp
  4027ad:	5b                   	pop    %rbx
  4027ae:	5d                   	pop    %rbp
  4027af:	41 5c                	pop    %r12
  4027b1:	41 5d                	pop    %r13
  4027b3:	41 5e                	pop    %r14
  4027b5:	41 5f                	pop    %r15
  4027b7:	c3                   	retq   
  4027b8:	48 b8 45 72 72 6f 72 	movabs $0x43203a726f727245,%rax
  4027bf:	3a 20 43 
  4027c2:	48 ba 6c 69 65 6e 74 	movabs $0x6e7520746e65696c,%rdx
  4027c9:	20 75 6e 
  4027cc:	48 89 45 00          	mov    %rax,0x0(%rbp)
  4027d0:	48 89 55 08          	mov    %rdx,0x8(%rbp)
  4027d4:	48 b8 61 62 6c 65 20 	movabs $0x206f7420656c6261,%rax
  4027db:	74 6f 20 
  4027de:	48 ba 63 72 65 61 74 	movabs $0x7320657461657263,%rdx
  4027e5:	65 20 73 
  4027e8:	48 89 45 10          	mov    %rax,0x10(%rbp)
  4027ec:	48 89 55 18          	mov    %rdx,0x18(%rbp)
  4027f0:	c7 45 20 6f 63 6b 65 	movl   $0x656b636f,0x20(%rbp)
  4027f7:	66 c7 45 24 74 00    	movw   $0x74,0x24(%rbp)
  4027fd:	b8 ff ff ff ff       	mov    $0xffffffff,%eax
  402802:	eb 8b                	jmp    40278f <submitr+0x2d7>
  402804:	48 b8 45 72 72 6f 72 	movabs $0x44203a726f727245,%rax
  40280b:	3a 20 44 
  40280e:	48 ba 4e 53 20 69 73 	movabs $0x6e7520736920534e,%rdx
  402815:	20 75 6e 
  402818:	48 89 45 00          	mov    %rax,0x0(%rbp)
  40281c:	48 89 55 08          	mov    %rdx,0x8(%rbp)
  402820:	48 b8 61 62 6c 65 20 	movabs $0x206f7420656c6261,%rax
  402827:	74 6f 20 
  40282a:	48 ba 72 65 73 6f 6c 	movabs $0x2065766c6f736572,%rdx
  402831:	76 65 20 
  402834:	48 89 45 10          	mov    %rax,0x10(%rbp)
  402838:	48 89 55 18          	mov    %rdx,0x18(%rbp)
  40283c:	48 b8 73 65 72 76 65 	movabs $0x6120726576726573,%rax
  402843:	72 20 61 
  402846:	48 89 45 20          	mov    %rax,0x20(%rbp)
  40284a:	c7 45 28 64 64 72 65 	movl   $0x65726464,0x28(%rbp)
  402851:	66 c7 45 2c 73 73    	movw   $0x7373,0x2c(%rbp)
  402857:	c6 45 2e 00          	movb   $0x0,0x2e(%rbp)
  40285b:	89 df                	mov    %ebx,%edi
  40285d:	e8 be e4 ff ff       	callq  400d20 <close@plt>
  402862:	b8 ff ff ff ff       	mov    $0xffffffff,%eax
  402867:	e9 23 ff ff ff       	jmpq   40278f <submitr+0x2d7>
  40286c:	48 b8 45 72 72 6f 72 	movabs $0x55203a726f727245,%rax
  402873:	3a 20 55 
  402876:	48 ba 6e 61 62 6c 65 	movabs $0x6f7420656c62616e,%rdx
  40287d:	20 74 6f 
  402880:	48 89 45 00          	mov    %rax,0x0(%rbp)
  402884:	48 89 55 08          	mov    %rdx,0x8(%rbp)
  402888:	48 b8 20 63 6f 6e 6e 	movabs $0x7463656e6e6f6320,%rax
  40288f:	65 63 74 
  402892:	48 ba 20 74 6f 20 74 	movabs $0x20656874206f7420,%rdx
  402899:	68 65 20 
  40289c:	48 89 45 10          	mov    %rax,0x10(%rbp)
  4028a0:	48 89 55 18          	mov    %rdx,0x18(%rbp)
  4028a4:	c7 45 20 73 65 72 76 	movl   $0x76726573,0x20(%rbp)
  4028ab:	66 c7 45 24 65 72    	movw   $0x7265,0x24(%rbp)
  4028b1:	c6 45 26 00          	movb   $0x0,0x26(%rbp)
  4028b5:	89 df                	mov    %ebx,%edi
  4028b7:	e8 64 e4 ff ff       	callq  400d20 <close@plt>
  4028bc:	b8 ff ff ff ff       	mov    $0xffffffff,%eax
  4028c1:	e9 c9 fe ff ff       	jmpq   40278f <submitr+0x2d7>
  4028c6:	48 b8 45 72 72 6f 72 	movabs $0x52203a726f727245,%rax
  4028cd:	3a 20 52 
  4028d0:	48 ba 65 73 75 6c 74 	movabs $0x747320746c757365,%rdx
  4028d7:	20 73 74 
  4028da:	48 89 45 00          	mov    %rax,0x0(%rbp)
  4028de:	48 89 55 08          	mov    %rdx,0x8(%rbp)
  4028e2:	48 b8 72 69 6e 67 20 	movabs $0x6f6f7420676e6972,%rax
  4028e9:	74 6f 6f 
  4028ec:	48 ba 20 6c 61 72 67 	movabs $0x202e656772616c20,%rdx
  4028f3:	65 2e 20 
  4028f6:	48 89 45 10          	mov    %rax,0x10(%rbp)
  4028fa:	48 89 55 18          	mov    %rdx,0x18(%rbp)
  4028fe:	48 b8 49 6e 63 72 65 	movabs $0x6573616572636e49,%rax
  402905:	61 73 65 
  402908:	48 ba 20 53 55 42 4d 	movabs $0x5254494d42555320,%rdx
  40290f:	49 54 52 
  402912:	48 89 45 20          	mov    %rax,0x20(%rbp)
  402916:	48 89 55 28          	mov    %rdx,0x28(%rbp)
  40291a:	48 b8 5f 4d 41 58 42 	movabs $0x46554258414d5f,%rax
  402921:	55 46 00 
  402924:	48 89 45 30          	mov    %rax,0x30(%rbp)
  402928:	89 df                	mov    %ebx,%edi
  40292a:	e8 f1 e3 ff ff       	callq  400d20 <close@plt>
  40292f:	b8 ff ff ff ff       	mov    $0xffffffff,%eax
  402934:	e9 56 fe ff ff       	jmpq   40278f <submitr+0x2d7>
  402939:	48 b8 45 72 72 6f 72 	movabs $0x52203a726f727245,%rax
  402940:	3a 20 52 
  402943:	48 ba 65 73 75 6c 74 	movabs $0x747320746c757365,%rdx
  40294a:	20 73 74 
  40294d:	48 89 45 00          	mov    %rax,0x0(%rbp)
  402951:	48 89 55 08          	mov    %rdx,0x8(%rbp)
  402955:	48 b8 72 69 6e 67 20 	movabs $0x6e6f6320676e6972,%rax
  40295c:	63 6f 6e 
  40295f:	48 ba 74 61 69 6e 73 	movabs $0x6e6120736e696174,%rdx
  402966:	20 61 6e 
  402969:	48 89 45 10          	mov    %rax,0x10(%rbp)
  40296d:	48 89 55 18          	mov    %rdx,0x18(%rbp)
  402971:	48 b8 20 69 6c 6c 65 	movabs $0x6c6167656c6c6920,%rax
  402978:	67 61 6c 
  40297b:	48 ba 20 6f 72 20 75 	movabs $0x72706e7520726f20,%rdx
  402982:	6e 70 72 
  402985:	48 89 45 20          	mov    %rax,0x20(%rbp)
  402989:	48 89 55 28          	mov    %rdx,0x28(%rbp)
  40298d:	48 b8 69 6e 74 61 62 	movabs $0x20656c6261746e69,%rax
  402994:	6c 65 20 
  402997:	48 ba 63 68 61 72 61 	movabs $0x6574636172616863,%rdx
  40299e:	63 74 65 
  4029a1:	48 89 45 30          	mov    %rax,0x30(%rbp)
  4029a5:	48 89 55 38          	mov    %rdx,0x38(%rbp)
  4029a9:	66 c7 45 40 72 2e    	movw   $0x2e72,0x40(%rbp)
  4029af:	c6 45 42 00          	movb   $0x0,0x42(%rbp)
  4029b3:	89 df                	mov    %ebx,%edi
  4029b5:	e8 66 e3 ff ff       	callq  400d20 <close@plt>
  4029ba:	b8 ff ff ff ff       	mov    $0xffffffff,%eax
  4029bf:	e9 cb fd ff ff       	jmpq   40278f <submitr+0x2d7>
  4029c4:	48 b8 45 72 72 6f 72 	movabs $0x43203a726f727245,%rax
  4029cb:	3a 20 43 
  4029ce:	48 ba 6c 69 65 6e 74 	movabs $0x6e7520746e65696c,%rdx
  4029d5:	20 75 6e 
  4029d8:	48 89 45 00          	mov    %rax,0x0(%rbp)
  4029dc:	48 89 55 08          	mov    %rdx,0x8(%rbp)
  4029e0:	48 b8 61 62 6c 65 20 	movabs $0x206f7420656c6261,%rax
  4029e7:	74 6f 20 
  4029ea:	48 ba 77 72 69 74 65 	movabs $0x6f74206574697277,%rdx
  4029f1:	20 74 6f 
  4029f4:	48 89 45 10          	mov    %rax,0x10(%rbp)
  4029f8:	48 89 55 18          	mov    %rdx,0x18(%rbp)
  4029fc:	48 b8 20 74 68 65 20 	movabs $0x7365722065687420,%rax
  402a03:	72 65 73 
  402a06:	48 ba 75 6c 74 20 73 	movabs $0x7672657320746c75,%rdx
  402a0d:	65 72 76 
  402a10:	48 89 45 20          	mov    %rax,0x20(%rbp)
  402a14:	48 89 55 28          	mov    %rdx,0x28(%rbp)
  402a18:	66 c7 45 30 65 72    	movw   $0x7265,0x30(%rbp)
  402a1e:	c6 45 32 00          	movb   $0x0,0x32(%rbp)
  402a22:	89 df                	mov    %ebx,%edi
  402a24:	e8 f7 e2 ff ff       	callq  400d20 <close@plt>
  402a29:	b8 ff ff ff ff       	mov    $0xffffffff,%eax
  402a2e:	e9 5c fd ff ff       	jmpq   40278f <submitr+0x2d7>
  402a33:	48 b8 45 72 72 6f 72 	movabs $0x43203a726f727245,%rax
  402a3a:	3a 20 43 
  402a3d:	48 ba 6c 69 65 6e 74 	movabs $0x6e7520746e65696c,%rdx
  402a44:	20 75 6e 
  402a47:	48 89 45 00          	mov    %rax,0x0(%rbp)
  402a4b:	48 89 55 08          	mov    %rdx,0x8(%rbp)
  402a4f:	48 b8 61 62 6c 65 20 	movabs $0x206f7420656c6261,%rax
  402a56:	74 6f 20 
  402a59:	48 ba 72 65 61 64 20 	movabs $0x7269662064616572,%rdx
  402a60:	66 69 72 
  402a63:	48 89 45 10          	mov    %rax,0x10(%rbp)
  402a67:	48 89 55 18          	mov    %rdx,0x18(%rbp)
  402a6b:	48 b8 73 74 20 68 65 	movabs $0x6564616568207473,%rax
  402a72:	61 64 65 
  402a75:	48 ba 72 20 66 72 6f 	movabs $0x72206d6f72662072,%rdx
  402a7c:	6d 20 72 
  402a7f:	48 89 45 20          	mov    %rax,0x20(%rbp)
  402a83:	48 89 55 28          	mov    %rdx,0x28(%rbp)
  402a87:	48 b8 65 73 75 6c 74 	movabs $0x657320746c757365,%rax
  402a8e:	20 73 65 
  402a91:	48 89 45 30          	mov    %rax,0x30(%rbp)
  402a95:	c7 45 38 72 76 65 72 	movl   $0x72657672,0x38(%rbp)
  402a9c:	c6 45 3c 00          	movb   $0x0,0x3c(%rbp)
  402aa0:	89 df                	mov    %ebx,%edi
  402aa2:	e8 79 e2 ff ff       	callq  400d20 <close@plt>
  402aa7:	b8 ff ff ff ff       	mov    $0xffffffff,%eax
  402aac:	e9 de fc ff ff       	jmpq   40278f <submitr+0x2d7>
  402ab1:	ba 00 20 00 00       	mov    $0x2000,%edx
  402ab6:	48 8d b4 24 40 20 00 	lea    0x2040(%rsp),%rsi
  402abd:	00 
  402abe:	48 8d 7c 24 30       	lea    0x30(%rsp),%rdi
  402ac3:	e8 3b f8 ff ff       	callq  402303 <rio_readlineb>
  402ac8:	48 85 c0             	test   %rax,%rax
  402acb:	0f 8e 90 00 00 00    	jle    402b61 <submitr+0x6a9>
  402ad1:	44 8b 44 24 1c       	mov    0x1c(%rsp),%r8d
  402ad6:	41 81 f8 c8 00 00 00 	cmp    $0xc8,%r8d
  402add:	0f 85 02 01 00 00    	jne    402be5 <submitr+0x72d>
  402ae3:	48 8d b4 24 40 20 00 	lea    0x2040(%rsp),%rsi
  402aea:	00 
  402aeb:	48 89 ef             	mov    %rbp,%rdi
  402aee:	e8 bd e1 ff ff       	callq  400cb0 <strcpy@plt>
  402af3:	89 df                	mov    %ebx,%edi
  402af5:	e8 26 e2 ff ff       	callq  400d20 <close@plt>
  402afa:	bf 90 37 40 00       	mov    $0x403790,%edi
  402aff:	b9 04 00 00 00       	mov    $0x4,%ecx
  402b04:	48 89 ee             	mov    %rbp,%rsi
  402b07:	f3 a6                	repz cmpsb %es:(%rdi),%ds:(%rsi)
  402b09:	0f 97 c0             	seta   %al
  402b0c:	1c 00                	sbb    $0x0,%al
  402b0e:	0f be c0             	movsbl %al,%eax
  402b11:	85 c0                	test   %eax,%eax
  402b13:	0f 84 76 fc ff ff    	je     40278f <submitr+0x2d7>
  402b19:	bf 94 37 40 00       	mov    $0x403794,%edi
  402b1e:	b9 05 00 00 00       	mov    $0x5,%ecx
  402b23:	48 89 ee             	mov    %rbp,%rsi
  402b26:	f3 a6                	repz cmpsb %es:(%rdi),%ds:(%rsi)
  402b28:	0f 97 c0             	seta   %al
  402b2b:	1c 00                	sbb    $0x0,%al
  402b2d:	0f be c0             	movsbl %al,%eax
  402b30:	85 c0                	test   %eax,%eax
  402b32:	0f 84 57 fc ff ff    	je     40278f <submitr+0x2d7>
  402b38:	bf 99 37 40 00       	mov    $0x403799,%edi
  402b3d:	b9 03 00 00 00       	mov    $0x3,%ecx
  402b42:	48 89 ee             	mov    %rbp,%rsi
  402b45:	f3 a6                	repz cmpsb %es:(%rdi),%ds:(%rsi)
  402b47:	0f 97 c0             	seta   %al
  402b4a:	1c 00                	sbb    $0x0,%al
  402b4c:	0f be c0             	movsbl %al,%eax
  402b4f:	85 c0                	test   %eax,%eax
  402b51:	0f 84 38 fc ff ff    	je     40278f <submitr+0x2d7>
  402b57:	b8 ff ff ff ff       	mov    $0xffffffff,%eax
  402b5c:	e9 2e fc ff ff       	jmpq   40278f <submitr+0x2d7>
  402b61:	48 b8 45 72 72 6f 72 	movabs $0x43203a726f727245,%rax
  402b68:	3a 20 43 
  402b6b:	48 ba 6c 69 65 6e 74 	movabs $0x6e7520746e65696c,%rdx
  402b72:	20 75 6e 
  402b75:	48 89 45 00          	mov    %rax,0x0(%rbp)
  402b79:	48 89 55 08          	mov    %rdx,0x8(%rbp)
  402b7d:	48 b8 61 62 6c 65 20 	movabs $0x206f7420656c6261,%rax
  402b84:	74 6f 20 
  402b87:	48 ba 72 65 61 64 20 	movabs $0x6174732064616572,%rdx
  402b8e:	73 74 61 
  402b91:	48 89 45 10          	mov    %rax,0x10(%rbp)
  402b95:	48 89 55 18          	mov    %rdx,0x18(%rbp)
  402b99:	48 b8 74 75 73 20 6d 	movabs $0x7373656d20737574,%rax
  402ba0:	65 73 73 
  402ba3:	48 ba 61 67 65 20 66 	movabs $0x6d6f726620656761,%rdx
  402baa:	72 6f 6d 
  402bad:	48 89 45 20          	mov    %rax,0x20(%rbp)
  402bb1:	48 89 55 28          	mov    %rdx,0x28(%rbp)
  402bb5:	48 b8 20 72 65 73 75 	movabs $0x20746c7573657220,%rax
  402bbc:	6c 74 20 
  402bbf:	48 89 45 30          	mov    %rax,0x30(%rbp)
  402bc3:	c7 45 38 73 65 72 76 	movl   $0x76726573,0x38(%rbp)
  402bca:	66 c7 45 3c 65 72    	movw   $0x7265,0x3c(%rbp)
  402bd0:	c6 45 3e 00          	movb   $0x0,0x3e(%rbp)
  402bd4:	89 df                	mov    %ebx,%edi
  402bd6:	e8 45 e1 ff ff       	callq  400d20 <close@plt>
  402bdb:	b8 ff ff ff ff       	mov    $0xffffffff,%eax
  402be0:	e9 aa fb ff ff       	jmpq   40278f <submitr+0x2d7>
  402be5:	4c 8d 8c 24 40 80 00 	lea    0x8040(%rsp),%r9
  402bec:	00 
  402bed:	b9 48 37 40 00       	mov    $0x403748,%ecx
  402bf2:	48 c7 c2 ff ff ff ff 	mov    $0xffffffffffffffff,%rdx
  402bf9:	be 01 00 00 00       	mov    $0x1,%esi
  402bfe:	48 89 ef             	mov    %rbp,%rdi
  402c01:	b8 00 00 00 00       	mov    $0x0,%eax
  402c06:	e8 55 e2 ff ff       	callq  400e60 <__sprintf_chk@plt>
  402c0b:	89 df                	mov    %ebx,%edi
  402c0d:	e8 0e e1 ff ff       	callq  400d20 <close@plt>
  402c12:	b8 ff ff ff ff       	mov    $0xffffffff,%eax
  402c17:	e9 73 fb ff ff       	jmpq   40278f <submitr+0x2d7>
  402c1c:	e8 bf e0 ff ff       	callq  400ce0 <__stack_chk_fail@plt>

0000000000402c21 <init_timeout>:
  402c21:	85 ff                	test   %edi,%edi
  402c23:	74 26                	je     402c4b <init_timeout+0x2a>
  402c25:	53                   	push   %rbx
  402c26:	89 fb                	mov    %edi,%ebx
  402c28:	85 ff                	test   %edi,%edi
  402c2a:	78 18                	js     402c44 <init_timeout+0x23>
  402c2c:	be ec 21 40 00       	mov    $0x4021ec,%esi
  402c31:	bf 0e 00 00 00       	mov    $0xe,%edi
  402c36:	e8 05 e1 ff ff       	callq  400d40 <signal@plt>
  402c3b:	89 df                	mov    %ebx,%edi
  402c3d:	e8 ce e0 ff ff       	callq  400d10 <alarm@plt>
  402c42:	5b                   	pop    %rbx
  402c43:	c3                   	retq   
  402c44:	bb 00 00 00 00       	mov    $0x0,%ebx
  402c49:	eb e1                	jmp    402c2c <init_timeout+0xb>
  402c4b:	f3 c3                	repz retq 

0000000000402c4d <init_driver>:
  402c4d:	55                   	push   %rbp
  402c4e:	53                   	push   %rbx
  402c4f:	48 83 ec 28          	sub    $0x28,%rsp
  402c53:	48 89 fd             	mov    %rdi,%rbp
  402c56:	64 48 8b 04 25 28 00 	mov    %fs:0x28,%rax
  402c5d:	00 00 
  402c5f:	48 89 44 24 18       	mov    %rax,0x18(%rsp)
  402c64:	31 c0                	xor    %eax,%eax
  402c66:	be 01 00 00 00       	mov    $0x1,%esi
  402c6b:	bf 0d 00 00 00       	mov    $0xd,%edi
  402c70:	e8 cb e0 ff ff       	callq  400d40 <signal@plt>
  402c75:	be 01 00 00 00       	mov    $0x1,%esi
  402c7a:	bf 1d 00 00 00       	mov    $0x1d,%edi
  402c7f:	e8 bc e0 ff ff       	callq  400d40 <signal@plt>
  402c84:	be 01 00 00 00       	mov    $0x1,%esi
  402c89:	bf 1d 00 00 00       	mov    $0x1d,%edi
  402c8e:	e8 ad e0 ff ff       	callq  400d40 <signal@plt>
  402c93:	ba 00 00 00 00       	mov    $0x0,%edx
  402c98:	be 01 00 00 00       	mov    $0x1,%esi
  402c9d:	bf 02 00 00 00       	mov    $0x2,%edi
  402ca2:	e8 c9 e1 ff ff       	callq  400e70 <socket@plt>
  402ca7:	85 c0                	test   %eax,%eax
  402ca9:	0f 88 9c 00 00 00    	js     402d4b <init_driver+0xfe>
  402caf:	89 c3                	mov    %eax,%ebx
  402cb1:	bf 9c 37 40 00       	mov    $0x40379c,%edi
  402cb6:	e8 95 e0 ff ff       	callq  400d50 <gethostbyname@plt>
  402cbb:	48 85 c0             	test   %rax,%rax
  402cbe:	0f 84 d3 00 00 00    	je     402d97 <init_driver+0x14a>
  402cc4:	48 c7 44 24 02 00 00 	movq   $0x0,0x2(%rsp)
  402ccb:	00 00 
  402ccd:	c7 44 24 0a 00 00 00 	movl   $0x0,0xa(%rsp)
  402cd4:	00 
  402cd5:	66 c7 44 24 0e 00 00 	movw   $0x0,0xe(%rsp)
  402cdc:	66 c7 04 24 02 00    	movw   $0x2,(%rsp)
  402ce2:	48 63 50 14          	movslq 0x14(%rax),%rdx
  402ce6:	48 8b 40 18          	mov    0x18(%rax),%rax
  402cea:	48 8b 30             	mov    (%rax),%rsi
  402ced:	48 8d 7c 24 04       	lea    0x4(%rsp),%rdi
  402cf2:	b9 0c 00 00 00       	mov    $0xc,%ecx
  402cf7:	e8 64 e0 ff ff       	callq  400d60 <__memmove_chk@plt>
  402cfc:	66 c7 44 24 02 3c 9a 	movw   $0x9a3c,0x2(%rsp)
  402d03:	ba 10 00 00 00       	mov    $0x10,%edx
  402d08:	48 89 e6             	mov    %rsp,%rsi
  402d0b:	89 df                	mov    %ebx,%edi
  402d0d:	e8 2e e1 ff ff       	callq  400e40 <connect@plt>
  402d12:	85 c0                	test   %eax,%eax
  402d14:	0f 88 e5 00 00 00    	js     402dff <init_driver+0x1b2>
  402d1a:	89 df                	mov    %ebx,%edi
  402d1c:	e8 ff df ff ff       	callq  400d20 <close@plt>
  402d21:	66 c7 45 00 4f 4b    	movw   $0x4b4f,0x0(%rbp)
  402d27:	c6 45 02 00          	movb   $0x0,0x2(%rbp)
  402d2b:	b8 00 00 00 00       	mov    $0x0,%eax
  402d30:	48 8b 4c 24 18       	mov    0x18(%rsp),%rcx
  402d35:	64 48 33 0c 25 28 00 	xor    %fs:0x28,%rcx
  402d3c:	00 00 
  402d3e:	0f 85 0e 01 00 00    	jne    402e52 <init_driver+0x205>
  402d44:	48 83 c4 28          	add    $0x28,%rsp
  402d48:	5b                   	pop    %rbx
  402d49:	5d                   	pop    %rbp
  402d4a:	c3                   	retq   
  402d4b:	48 b8 45 72 72 6f 72 	movabs $0x43203a726f727245,%rax
  402d52:	3a 20 43 
  402d55:	48 ba 6c 69 65 6e 74 	movabs $0x6e7520746e65696c,%rdx
  402d5c:	20 75 6e 
  402d5f:	48 89 45 00          	mov    %rax,0x0(%rbp)
  402d63:	48 89 55 08          	mov    %rdx,0x8(%rbp)
  402d67:	48 b8 61 62 6c 65 20 	movabs $0x206f7420656c6261,%rax
  402d6e:	74 6f 20 
  402d71:	48 ba 63 72 65 61 74 	movabs $0x7320657461657263,%rdx
  402d78:	65 20 73 
  402d7b:	48 89 45 10          	mov    %rax,0x10(%rbp)
  402d7f:	48 89 55 18          	mov    %rdx,0x18(%rbp)
  402d83:	c7 45 20 6f 63 6b 65 	movl   $0x656b636f,0x20(%rbp)
  402d8a:	66 c7 45 24 74 00    	movw   $0x74,0x24(%rbp)
  402d90:	b8 ff ff ff ff       	mov    $0xffffffff,%eax
  402d95:	eb 99                	jmp    402d30 <init_driver+0xe3>
  402d97:	48 b8 45 72 72 6f 72 	movabs $0x44203a726f727245,%rax
  402d9e:	3a 20 44 
  402da1:	48 ba 4e 53 20 69 73 	movabs $0x6e7520736920534e,%rdx
  402da8:	20 75 6e 
  402dab:	48 89 45 00          	mov    %rax,0x0(%rbp)
  402daf:	48 89 55 08          	mov    %rdx,0x8(%rbp)
  402db3:	48 b8 61 62 6c 65 20 	movabs $0x206f7420656c6261,%rax
  402dba:	74 6f 20 
  402dbd:	48 ba 72 65 73 6f 6c 	movabs $0x2065766c6f736572,%rdx
  402dc4:	76 65 20 
  402dc7:	48 89 45 10          	mov    %rax,0x10(%rbp)
  402dcb:	48 89 55 18          	mov    %rdx,0x18(%rbp)
  402dcf:	48 b8 73 65 72 76 65 	movabs $0x6120726576726573,%rax
  402dd6:	72 20 61 
  402dd9:	48 89 45 20          	mov    %rax,0x20(%rbp)
  402ddd:	c7 45 28 64 64 72 65 	movl   $0x65726464,0x28(%rbp)
  402de4:	66 c7 45 2c 73 73    	movw   $0x7373,0x2c(%rbp)
  402dea:	c6 45 2e 00          	movb   $0x0,0x2e(%rbp)
  402dee:	89 df                	mov    %ebx,%edi
  402df0:	e8 2b df ff ff       	callq  400d20 <close@plt>
  402df5:	b8 ff ff ff ff       	mov    $0xffffffff,%eax
  402dfa:	e9 31 ff ff ff       	jmpq   402d30 <init_driver+0xe3>
  402dff:	48 b8 45 72 72 6f 72 	movabs $0x55203a726f727245,%rax
  402e06:	3a 20 55 
  402e09:	48 ba 6e 61 62 6c 65 	movabs $0x6f7420656c62616e,%rdx
  402e10:	20 74 6f 
  402e13:	48 89 45 00          	mov    %rax,0x0(%rbp)
  402e17:	48 89 55 08          	mov    %rdx,0x8(%rbp)
  402e1b:	48 b8 20 63 6f 6e 6e 	movabs $0x7463656e6e6f6320,%rax
  402e22:	65 63 74 
  402e25:	48 ba 20 74 6f 20 73 	movabs $0x76726573206f7420,%rdx
  402e2c:	65 72 76 
  402e2f:	48 89 45 10          	mov    %rax,0x10(%rbp)
  402e33:	48 89 55 18          	mov    %rdx,0x18(%rbp)
  402e37:	66 c7 45 20 65 72    	movw   $0x7265,0x20(%rbp)
  402e3d:	c6 45 22 00          	movb   $0x0,0x22(%rbp)
  402e41:	89 df                	mov    %ebx,%edi
  402e43:	e8 d8 de ff ff       	callq  400d20 <close@plt>
  402e48:	b8 ff ff ff ff       	mov    $0xffffffff,%eax
  402e4d:	e9 de fe ff ff       	jmpq   402d30 <init_driver+0xe3>
  402e52:	e8 89 de ff ff       	callq  400ce0 <__stack_chk_fail@plt>

0000000000402e57 <driver_post>:
  402e57:	53                   	push   %rbx
  402e58:	4c 89 cb             	mov    %r9,%rbx
  402e5b:	45 85 c0             	test   %r8d,%r8d
  402e5e:	75 18                	jne    402e78 <driver_post+0x21>
  402e60:	48 85 ff             	test   %rdi,%rdi
  402e63:	74 05                	je     402e6a <driver_post+0x13>
  402e65:	80 3f 00             	cmpb   $0x0,(%rdi)
  402e68:	75 35                	jne    402e9f <driver_post+0x48>
  402e6a:	66 c7 03 4f 4b       	movw   $0x4b4f,(%rbx)
  402e6f:	c6 43 02 00          	movb   $0x0,0x2(%rbx)
  402e73:	44 89 c0             	mov    %r8d,%eax
  402e76:	5b                   	pop    %rbx
  402e77:	c3                   	retq   
  402e78:	48 89 ca             	mov    %rcx,%rdx
  402e7b:	be b4 37 40 00       	mov    $0x4037b4,%esi
  402e80:	bf 01 00 00 00       	mov    $0x1,%edi
  402e85:	b8 00 00 00 00       	mov    $0x0,%eax
  402e8a:	e8 51 df ff ff       	callq  400de0 <__printf_chk@plt>
  402e8f:	66 c7 03 4f 4b       	movw   $0x4b4f,(%rbx)
  402e94:	c6 43 02 00          	movb   $0x0,0x2(%rbx)
  402e98:	b8 00 00 00 00       	mov    $0x0,%eax
  402e9d:	eb d7                	jmp    402e76 <driver_post+0x1f>
  402e9f:	48 83 ec 08          	sub    $0x8,%rsp
  402ea3:	41 51                	push   %r9
  402ea5:	49 89 c9             	mov    %rcx,%r9
  402ea8:	49 89 d0             	mov    %rdx,%r8
  402eab:	48 89 f9             	mov    %rdi,%rcx
  402eae:	48 89 f2             	mov    %rsi,%rdx
  402eb1:	be 9a 3c 00 00       	mov    $0x3c9a,%esi
  402eb6:	bf 9c 37 40 00       	mov    $0x40379c,%edi
  402ebb:	e8 f8 f5 ff ff       	callq  4024b8 <submitr>
  402ec0:	48 83 c4 10          	add    $0x10,%rsp
  402ec4:	eb b0                	jmp    402e76 <driver_post+0x1f>

0000000000402ec6 <check>:
  402ec6:	89 f8                	mov    %edi,%eax
  402ec8:	c1 e8 1c             	shr    $0x1c,%eax
  402ecb:	85 c0                	test   %eax,%eax
  402ecd:	74 1d                	je     402eec <check+0x26>
  402ecf:	b9 00 00 00 00       	mov    $0x0,%ecx
  402ed4:	83 f9 1f             	cmp    $0x1f,%ecx
  402ed7:	7f 0d                	jg     402ee6 <check+0x20>
  402ed9:	89 f8                	mov    %edi,%eax
  402edb:	d3 e8                	shr    %cl,%eax
  402edd:	3c 0a                	cmp    $0xa,%al
  402edf:	74 11                	je     402ef2 <check+0x2c>
  402ee1:	83 c1 08             	add    $0x8,%ecx
  402ee4:	eb ee                	jmp    402ed4 <check+0xe>
  402ee6:	b8 01 00 00 00       	mov    $0x1,%eax
  402eeb:	c3                   	retq   
  402eec:	b8 00 00 00 00       	mov    $0x0,%eax
  402ef1:	c3                   	retq   
  402ef2:	b8 00 00 00 00       	mov    $0x0,%eax
  402ef7:	c3                   	retq   

0000000000402ef8 <gencookie>:
  402ef8:	53                   	push   %rbx
  402ef9:	83 c7 01             	add    $0x1,%edi
  402efc:	e8 8f dd ff ff       	callq  400c90 <srandom@plt>
  402f01:	e8 9a de ff ff       	callq  400da0 <random@plt>
  402f06:	89 c3                	mov    %eax,%ebx
  402f08:	89 c7                	mov    %eax,%edi
  402f0a:	e8 b7 ff ff ff       	callq  402ec6 <check>
  402f0f:	85 c0                	test   %eax,%eax
  402f11:	74 ee                	je     402f01 <gencookie+0x9>
  402f13:	89 d8                	mov    %ebx,%eax
  402f15:	5b                   	pop    %rbx
  402f16:	c3                   	retq   
  402f17:	66 0f 1f 84 00 00 00 	nopw   0x0(%rax,%rax,1)
  402f1e:	00 00 

0000000000402f20 <__libc_csu_init>:
  402f20:	41 57                	push   %r15
  402f22:	41 56                	push   %r14
  402f24:	49 89 d7             	mov    %rdx,%r15
  402f27:	41 55                	push   %r13
  402f29:	41 54                	push   %r12
  402f2b:	4c 8d 25 de 1e 20 00 	lea    0x201ede(%rip),%r12        # 604e10 <__frame_dummy_init_array_entry>
  402f32:	55                   	push   %rbp
  402f33:	48 8d 2d de 1e 20 00 	lea    0x201ede(%rip),%rbp        # 604e18 <__init_array_end>
  402f3a:	53                   	push   %rbx
  402f3b:	41 89 fd             	mov    %edi,%r13d
  402f3e:	49 89 f6             	mov    %rsi,%r14
  402f41:	4c 29 e5             	sub    %r12,%rbp
  402f44:	48 83 ec 08          	sub    $0x8,%rsp
  402f48:	48 c1 fd 03          	sar    $0x3,%rbp
  402f4c:	e8 f7 dc ff ff       	callq  400c48 <_init>
  402f51:	48 85 ed             	test   %rbp,%rbp
  402f54:	74 20                	je     402f76 <__libc_csu_init+0x56>
  402f56:	31 db                	xor    %ebx,%ebx
  402f58:	0f 1f 84 00 00 00 00 	nopl   0x0(%rax,%rax,1)
  402f5f:	00 
  402f60:	4c 89 fa             	mov    %r15,%rdx
  402f63:	4c 89 f6             	mov    %r14,%rsi
  402f66:	44 89 ef             	mov    %r13d,%edi
  402f69:	41 ff 14 dc          	callq  *(%r12,%rbx,8)
  402f6d:	48 83 c3 01          	add    $0x1,%rbx
  402f71:	48 39 dd             	cmp    %rbx,%rbp
  402f74:	75 ea                	jne    402f60 <__libc_csu_init+0x40>
  402f76:	48 83 c4 08          	add    $0x8,%rsp
  402f7a:	5b                   	pop    %rbx
  402f7b:	5d                   	pop    %rbp
  402f7c:	41 5c                	pop    %r12
  402f7e:	41 5d                	pop    %r13
  402f80:	41 5e                	pop    %r14
  402f82:	41 5f                	pop    %r15
  402f84:	c3                   	retq   
  402f85:	90                   	nop
  402f86:	66 2e 0f 1f 84 00 00 	nopw   %cs:0x0(%rax,%rax,1)
  402f8d:	00 00 00 

0000000000402f90 <__libc_csu_fini>:
  402f90:	f3 c3                	repz retq 

Disassembly of section .fini:

0000000000402f94 <_fini>:
  402f94:	48 83 ec 08          	sub    $0x8,%rsp
  402f98:	48 83 c4 08          	add    $0x8,%rsp
  402f9c:	c3                   	retq   
